ccopy_reg
_reconstructor
p0
(csklearn.linear_model.logistic
LogisticRegression
p1
c__builtin__
object
p2
Ntp3
Rp4
(dp5
S'C'
p6
F100.0
sS'max_iter'
p7
I100
sS'verbose'
p8
I0
sS'intercept_scaling'
p9
I1
sS'dual'
p10
I00
sS'fit_intercept'
p11
I01
sS'classes_'
p12
cnumpy.core.multiarray
_reconstruct
p13
(cnumpy
ndarray
p14
(I0
tp15
S'b'
p16
tp17
Rp18
(I1
(I2
tp19
cnumpy
dtype
p20
(S'f8'
p21
I0
I1
tp22
Rp23
(I3
S'<'
p24
NNNI-1
I-1
I0
tp25
bI00
S'\x00\x00\x00\x00\x00\x00\x00\x00\x00\x00\x00\x00\x00\x00\xf0?'
p26
tp27
bsS'solver'
p28
S'liblinear'
p29
sS'n_iter_'
p30
cnumpy.core.multiarray
scalar
p31
(g20
(S'i4'
p32
I0
I1
tp33
Rp34
(I3
S'<'
p35
NNNI-1
I-1
I0
tp36
bS'\x03\x00\x00\x00'
p37
tp38
Rp39
sS'penalty'
p40
S'l2'
p41
sS'multi_class'
p42
S'ovr'
p43
sS'random_state'
p44
I42
sS'tol'
p45
F0.1
sS'coef_'
p46
g13
(g14
(I0
tp47
g16
tp48
Rp49
(I1
(I1
I3
tp50
g23
I01
S'zo\x1d\xd7\x0bN\xf8?\xd3i\x19\xe0vM\xe1\xbf\xfe\xe4\x9b\xce\x9a#\xe1?'
p51
tp52
bsS'intercept_'
p53
g13
(g14
(I0
tp54
g16
tp55
Rp56
(I1
(I1
tp57
g23
I00
S'nW\xae\x82~\xf1\x81\xbf'
p58
tp59
bsS'class_weight'
p60
(dp61
I00
I1
sI01
I9
ssb.