(dp0
S'METTS MARK'
p1
(dp2
S'to_messages'
p3
F-0.2074
sS'deferral_payments'
p4
F-0.3001
sS'bonus'
p5
F-0.0768
sS'deferred_income'
p6
F0.3257
sS'total_stock_value'
p7
F-0.3859
sS'expenses'
p8
F1.2759
sS'from_this_person_to_poi'
p9
F-0.3022
sS'poi'
p10
I00
sS'long_term_incentive'
p11
F-0.5008
sS'pca_component1'
p12
F-0.123
sS'restricted_stock'
p13
F-0.1517
sS'from_poi_to_this_person'
p14
F-0.0249
sS'salary'
p15
F0.8904
sS'total_payments'
p16
F-0.1409
sS'exercised_stock_options'
p17
F-0.4413
sS'email_address'
p18
S'mark.metts@enron.com'
p19
sS'restricted_stock_deferred'
p20
F-0.0574
sS'pca_component2'
p21
F0.128
sS'shared_receipt_with_poi'
p22
F-0.0191
sS'loan_advances'
p23
F-0.0873
sS'from_messages'
p24
F-0.2355
sS'other'
p25
F-0.2639
sS'director_fees'
p26
F-0.3116
ssS'BAXTER JOHN C'
p27
(dp28
g3
F-0.5658
sg4
F1.4022
sg5
F0.4067
sg6
F-1.9406
sg7
F1.2239
sg8
F-0.5549
sg9
F-0.3146
sg10
I00
sg11
F1.7909
sg12
F0.9665
sg13
F1.5002
sg14
F-0.5331
sg15
F0.3884
sg16
F0.371
sg17
F0.9406
sg18
S'NaN'
p29
sg20
F-0.0574
sg21
F-1.1596
sg22
F-0.6679
sg23
F-0.0873
sg24
F-0.2553
sg25
F2.0636
sg26
F-0.3116
ssS'ELLIOTT STEVEN'
p30
(dp31
g3
F-0.5658
sg4
F-0.3001
sg5
F-0.2783
sg6
F-0.3295
sg7
F0.5913
sg8
F0.929
sg9
F-0.3146
sg10
I00
sg11
F-0.5008
sg12
F-0.0969
sg13
F0.4403
sg14
F-0.5331
sg15
F-0.1007
sg16
F-0.236
sg17
F0.5703
sg18
S'steven.elliott@enron.com'
p32
sg20
F-0.0574
sg21
F-0.5437
sg22
F-0.6679
sg23
F-0.0873
sg24
F-0.2553
sg25
F-0.2541
sg26
F-0.3116
ssS'CORDES WILLIAM R'
p33
(dp34
g3
F-0.2265
sg4
F-0.3001
sg5
F-0.5603
sg6
F0.3257
sg7
F-0.3132
sg8
F-0.8017
sg9
F-0.3146
sg10
I00
sg11
F-0.5008
sg12
F-0.6018
sg13
F-0.2494
sg14
F-0.3994
sg15
F-0.9703
sg16
F-0.2597
sg17
F-0.3065
sg18
S'bill.cordes@enron.com'
p35
sg20
F-0.0574
sg21
F-0.2778
sg22
F-0.6143
sg23
F-0.0873
sg24
F-0.2471
sg25
F-0.2654
sg26
F-0.3116
ssS'HANNON KEVIN P'
p36
(dp37
g3
F-0.1017
sg4
F-0.3001
sg5
F0.6485
sg6
F-4.771
sg7
F0.5452
sg8
F-0.0517
sg9
F-0.0538
sg10
I01
sg11
F1.8356
sg12
F0.6398
sg13
F-0.0198
sg14
F-0.1052
sg15
F0.2673
sg16
F-0.2274
sg17
F0.7043
sg18
S'kevin.hannon@enron.com'
p38
sg20
F-0.0574
sg21
F-0.0304
sg22
F0.2886
sg23
F-0.0873
sg24
F-0.2335
sg25
F-0.2555
sg26
F-0.3116
ssS'MORDAUNT KRISTINA M'
p39
(dp40
g3
F-0.5658
sg4
F-0.3001
sg5
F-0.2984
sg6
F0.3257
sg7
F-0.4462
sg8
F-0.0301
sg9
F-0.3146
sg10
I00
sg11
F-0.5008
sg12
F-0.4398
sg13
F-0.3369
sg14
F-0.5331
sg15
F0.3884
sg16
F-0.1894
sg17
F-0.4413
sg18
S'kristina.mordaunt@enron.com'
p41
sg20
F-0.0574
sg21
F-0.2544
sg22
F-0.6679
sg23
F-0.0873
sg24
F-0.2553
sg25
F-0.2642
sg26
F-0.3116
ssS'MEYER ROCKFORD G'
p42
(dp43
g3
F-0.4628
sg4
F2.128
sg5
F-0.5603
sg6
F0.3257
sg7
F-0.3264
sg8
F-0.8017
sg9
F-0.3146
sg10
I00
sg11
F-0.5008
sg12
F-0.4995
sg13
F-0.212
sg14
F-0.5331
sg15
F-0.9703
sg16
F-0.0528
sg17
F-0.3392
sg18
S'rockford.meyer@enron.com'
p44
sg20
F-0.0574
sg21
F-0.338
sg22
F-0.6475
sg23
F-0.0873
sg24
F-0.2362
sg25
F-0.2654
sg26
F-0.3116
ssS'MCMAHON JEFFREY'
p45
(dp46
g3
F0.4802
sg4
F-0.3001
sg5
F1.5349
sg6
F0.3257
sg7
F-0.213
sg8
F2.2191
sg9
F0.0083
sg10
I00
sg11
F0.5032
sg12
F0.5683
sg13
F-0.1646
sg14
F0.2425
sg15
F0.9141
sg16
F0.1992
sg17
F-0.2129
sg18
S'jeffrey.mcmahon@enron.com'
p47
sg20
F-0.0574
sg21
F0.7346
sg22
F1.3911
sg23
F-0.0873
sg24
F-0.2225
sg25
F-0.0051
sg26
F-0.3116
ssS'HORTON STANLEY C'
p48
(dp49
g3
F0.4779
sg4
F3.8143
sg5
F-0.5603
sg6
F0.3257
sg7
F0.684
sg8
F-0.8017
sg9
F-0.1283
sg10
I00
sg11
F-0.5008
sg12
F0.1558
sg13
F0.5671
sg14
F0.0553
sg15
F-0.9703
sg16
F0.0909
sg17
F0.6365
sg18
S'stanley.horton@enron.com'
p50
sg20
F-0.0574
sg21
F0.0182
sg22
F0.3247
sg23
F-0.0873
sg24
F0.4772
sg25
F-0.2654
sg26
F-0.3116
ssS'PIPER GREGORY F'
p51
(dp52
g3
F-0.016
sg4
F1.1845
sg5
F-0.238
sg6
F0.2712
sg7
F-0.3385
sg8
F0.147
sg9
F0.2816
sg10
I00
sg11
F-0.5008
sg12
F-0.1257
sg13
F-0.238
sg14
F0.2827
sg15
F0.0323
sg16
F-0.0652
sg17
F-0.2592
sg18
S'greg.piper@enron.com'
p53
sg20
F-0.3687
sg21
F0.2891
sg22
F0.0178
sg23
F-0.0873
sg24
F-0.1037
sg25
F-0.2647
sg26
F-0.3116
ssS'HUMPHREY GENE E'
p54
(dp55
g3
F-0.509
sg4
F3.5945
sg5
F-0.5603
sg6
F0.3257
sg7
F-0.1136
sg8
F-0.6916
sg9
F-0.1034
sg10
I00
sg11
F-0.5008
sg12
F-0.2611
sg13
F-0.4395
sg14
F-0.3994
sg15
F-0.3053
sg16
F0.0873
sg17
F0.0309
sg18
S'gene.humphrey@enron.com'
p56
sg20
F-0.0574
sg21
F-0.2801
sg22
F-0.5579
sg23
F-0.0873
sg24
F-0.2437
sg25
F-0.2654
sg26
F-0.3116
ssS'UMANOFF ADAM S'
p57
(dp58
g3
F-0.5165
sg4
F-0.3001
sg5
F0.0753
sg6
F0.3257
sg7
F-0.4797
sg8
F0.3687
sg9
F-0.3146
sg10
I00
sg11
F-0.5008
sg12
F-0.3485
sg13
F-0.4395
sg14
F-0.3726
sg15
F0.4977
sg16
F-0.1332
sg17
F-0.4413
sg18
S'adam.umanoff@enron.com'
p59
sg20
F-0.0574
sg21
F-0.138
sg22
F-0.63
sg23
F-0.0873
sg24
F-0.243
sg25
F-0.2654
sg26
F-0.3116
ssS'BLACHMAN JEREMY M'
p60
(dp61
g3
F0.5335
sg4
F-0.3001
sg5
F0.1247
sg6
F0.3257
sg7
F-0.3266
sg8
F1.0536
sg9
F-0.2897
sg10
I00
sg11
F0.7011
sg12
F0.1398
sg13
F-0.3465
sg14
F-0.1988
sg15
F0.294
sg16
F-0.0342
sg17
F-0.283
sg18
S'jeremy.blachman@enron.com'
p62
sg20
F-0.0574
sg21
F0.5094
sg22
F1.4817
sg23
F-0.0873
sg24
F-0.2457
sg25
F-0.2652
sg26
F-0.3116
ssS'SUNDE MARTIN'
p63
(dp64
g3
F0.6099
sg4
F-0.3001
sg5
F0.0038
sg6
F0.3257
sg7
F-0.3676
sg8
F-0.8017
sg9
F-0.1531
sg10
I00
sg11
F0.1876
sg12
F0.0492
sg13
F-0.0957
sg14
F-0.0383
sg15
F0.3395
sg16
F-0.0868
sg17
F-0.4413
sg18
S'marty.sunde@enron.com'
p65
sg20
F-0.0574
sg21
F0.5296
sg22
F1.7026
sg23
F-0.0873
sg24
F-0.2294
sg25
F-0.1681
sg26
F-0.3116
ssS'GIBBS DANA R'
p66
(dp67
g3
F-0.4908
sg4
F0.3628
sg5
F-0.5603
sg6
F0.3257
sg7
F-0.124
sg8
F-0.8017
sg9
F-0.3146
sg10
I00
sg11
F0.1666
sg12
F-0.4888
sg13
F-0.4395
sg14
F-0.5331
sg15
F-0.9703
sg16
F-0.1515
sg17
F0.0176
sg18
S'dana.gibbs@enron.com'
p68
sg20
F-0.0574
sg21
F-0.4307
sg22
F-0.6466
sg23
F-0.0873
sg24
F-0.2471
sg25
F-0.2654
sg26
F-0.3116
ssS'LOWRY CHARLES P'
p69
(dp70
g3
F-0.5658
sg4
F-0.3001
sg5
F-0.5603
sg6
F0.3257
sg7
F-0.42
sg8
F-0.8017
sg9
F-0.3146
sg10
I00
sg11
F-0.5008
sg12
F-0.6758
sg13
F-0.3639
sg14
F-0.5331
sg15
F-0.9703
sg16
F-0.2597
sg17
F-0.3643
sg18
g29
sg20
F-0.1742
sg21
F-0.3539
sg22
F-0.6679
sg23
F-0.0873
sg24
F-0.2553
sg25
F-0.2654
sg26
F-0.3116
ssS'COLWELL WESLEY'
p71
(dp72
g3
F0.215
sg4
F-0.2638
sg5
F0.4067
sg6
F0.0902
sg7
F-0.3677
sg8
F-0.4378
sg9
F-0.178
sg10
I01
sg11
F-0.5008
sg12
F0.1458
sg13
F-0.096
sg14
F2.6765
sg15
F0.4975
sg16
F-0.0929
sg17
F-0.4413
sg18
S'wes.colwell@enron.com'
p73
sg20
F-0.0574
sg21
F0.7467
sg22
F0.3783
sg23
F-0.0873
sg24
F-0.228
sg25
F-0.1763
sg26
F-0.3116
ssS'MULLER MARK S'
p74
(dp75
g3
F-0.5054
sg4
F0.8073
sg5
F0.3261
sg6
F-0.8499
sg7
F-0.2525
sg8
F-0.8017
sg9
F-0.3146
sg10
I00
sg11
F1.9924
sg12
F0.08
sg13
F-0.2621
sg14
F-0.3726
sg15
F0.3098
sg16
F0.0987
sg17
F-0.2228
sg18
S's..muller@enron.com'
p76
sg20
F-0.0574
sg21
F-0.296
sg22
F-0.5625
sg23
F-0.0873
sg24
F-0.2444
sg25
F-0.2646
sg26
F-0.3116
ssS'JACKSON CHARLENE R'
p77
(dp78
g3
F-0.4512
sg4
F-0.3001
sg5
F-0.3589
sg6
F0.3257
sg7
F-0.3633
sg8
F-0.5773
sg9
F-0.0786
sg10
I00
sg11
F-0.5008
sg12
F-0.3685
sg13
F-0.1735
sg14
F-0.1988
sg15
F0.4976
sg16
F-0.198
sg17
F-0.403
sg18
S'charlene.jackson@enron.com'
p79
sg20
F-0.0574
sg21
F-0.152
sg22
F-0.5597
sg23
F-0.0873
sg24
F-0.2171
sg25
F-0.2633
sg26
F-0.3116
ssS'WESTFAHL RICHARD K'
p80
(dp81
g3
F-0.5658
sg4
F-0.3001
sg5
F-0.5603
sg6
F0.3081
sg7
F-0.418
sg8
F0.3411
sg9
F-0.3146
sg10
I00
sg11
F-0.1306
sg12
F-0.4879
sg13
F-0.2501
sg14
F-0.5331
sg15
F-0.646
sg16
F-0.1744
sg17
F-0.4413
sg18
S'dick.westfahl@enron.com'
p82
sg20
F-0.0574
sg21
F-0.3522
sg22
F-0.6679
sg23
F-0.0873
sg24
F-0.2553
sg25
F0.0858
sg26
F-0.3116
ssS'WALTERS GARETH W'
p83
(dp84
g3
F-0.5658
sg4
F-0.2297
sg5
F-0.5603
sg6
F0.3257
sg7
F-0.3145
sg8
F-0.0573
sg9
F-0.3146
sg10
I00
sg11
F-0.5008
sg12
F-0.6183
sg13
F-0.4395
sg14
F-0.5331
sg15
F-0.9703
sg16
F-0.2499
sg17
F-0.2282
sg18
g29
sg20
F-0.0574
sg21
F-0.3394
sg22
F-0.6679
sg23
F-0.0873
sg24
F-0.2553
sg25
F-0.2654
sg26
F-0.3116
ssS'WALLS JR ROBERT H'
p85
(dp86
g3
F-0.2678
sg4
F-0.3001
sg5
F0.1247
sg6
F0.3257
sg7
F0.4663
sg8
F0.3206
sg9
F-0.3146
sg10
I00
sg11
F0.2805
sg12
F0.1275
sg13
F0.3243
sg14
F-0.3058
sg15
F0.8462
sg16
F-0.0584
sg17
F0.4578
sg18
S'rob.walls@enron.com'
p87
sg20
F-0.0574
sg21
F-0.3557
sg22
F-0.4692
sg23
F-0.0873
sg24
F-0.1556
sg25
F-0.2654
sg26
F-0.3116
ssS'KITCHEN LOUISE'
p88
(dp89
g3
F3.1229
sg4
F-0.3001
sg5
F1.9379
sg6
F0.3257
sg7
F-0.3919
sg8
F-0.6744
sg9
F2.0948
sg10
I00
sg11
F-0.5008
sg12
F0.925
sg13
F-0.2102
sg14
F2.8237
sg15
F0.4105
sg16
F0.1288
sg17
F-0.4245
sg18
S'louise.kitchen@enron.com'
p90
sg20
F-0.0574
sg21
F2.6859
sg22
F2.7228
sg23
F-0.0873
sg24
F0.9244
sg25
F-0.1832
sg26
F-0.3116
ssS'CHAN RONNIE'
p91
(dp92
g3
F-0.5658
sg4
F-0.3001
sg5
F-0.5603
sg6
F0.1642
sg7
F-0.4797
sg8
F-0.8017
sg9
F-0.3146
sg10
I00
sg11
F-0.5008
sg12
F-0.8181
sg13
F-0.4235
sg14
F-0.5331
sg15
F-0.9703
sg16
F-0.2597
sg17
F-0.4413
sg18
g29
sg20
F-0.0821
sg21
F-0.49
sg22
F-0.6679
sg23
F-0.0873
sg24
F-0.2553
sg25
F-0.2654
sg26
F2.9579
ssS'BELFER ROBERT'
p93
(dp94
g3
F-0.5658
sg4
F-0.4348
sg5
F-0.5603
sg6
F0.3257
sg7
F-0.4868
sg8
F-0.8017
sg9
F-0.3146
sg10
I00
sg11
F-0.5008
sg12
F-0.7112
sg13
F-0.4395
sg14
F-0.5331
sg15
F-0.9703
sg16
F-0.2482
sg17
F-0.4406
sg18
g29
sg20
F-0.0239
sg21
F-0.3399
sg22
F-0.6679
sg23
F-0.0873
sg24
F-0.2553
sg25
F-0.2654
sg26
F-0.2028
ssS'SHANKMAN JEFFREY A'
p95
(dp96
g3
F0.8648
sg4
F-0.3001
sg5
F1.0514
sg6
F0.3257
sg7
F-0.1474
sg8
F3.1416
sg9
F0.7163
sg10
I00
sg11
F0.3003
sg12
F0.581
sg13
F-0.1295
sg14
F0.724
sg15
F0.5767
sg16
F0.0804
sg17
F-0.143
sg18
S'jeffrey.shankman@enron.com'
p97
sg20
F-0.0574
sg21
F1.305
sg22
F0.9309
sg23
F-0.0873
sg24
F1.575
sg25
F-0.2644
sg26
F-0.3116
ssS'WODRASKA JOHN'
p98
(dp99
g3
F-0.5658
sg4
F-0.3001
sg5
F-0.5603
sg6
F0.3257
sg7
F-0.4797
sg8
F-0.8017
sg9
F-0.3146
sg10
I00
sg11
F-0.5008
sg12
F-0.6787
sg13
F-0.4395
sg14
F-0.5331
sg15
F-0.9703
sg16
F-0.2385
sg17
F-0.4413
sg18
S'john.wodraska@enron.com'
p100
sg20
F-0.0574
sg21
F-0.3548
sg22
F-0.6679
sg23
F-0.0873
sg24
F-0.2553
sg25
F-0.0994
sg26
F-0.3116
ssS'BERGSIEKER RICHARD P'
p101
(dp102
g3
F-0.3957
sg4
F-0.3001
sg5
F-0.3589
sg6
F-0.4686
sg7
F-0.374
sg8
F0.5021
sg9
F-0.3146
sg10
I00
sg11
F-0.2403
sg12
F-0.2837
sg13
F-0.1152
sg14
F-0.4796
sg15
F-0.0144
sg16
F-0.1904
sg17
F-0.4413
sg18
S'rick.bergsieker@enron.com'
p103
sg20
F-0.0574
sg21
F-0.2183
sg22
F-0.4525
sg23
F-0.0873
sg24
F-0.215
sg25
F0.1087
sg26
F-0.3116
ssS'URQUHART JOHN A'
p104
(dp105
g3
F-0.5658
sg4
F-0.3001
sg5
F-0.5603
sg6
F0.2658
sg7
F-0.4797
sg8
F4.2361
sg9
F-0.3146
sg10
I00
sg11
F-0.5008
sg12
F-0.5053
sg13
F-0.4395
sg14
F-0.5331
sg15
F-0.9703
sg16
F-0.2341
sg17
F-0.4413
sg18
g29
sg20
F-0.0574
sg21
F-0.1207
sg22
F-0.6679
sg23
F-0.0873
sg24
F-0.2553
sg25
F-0.2654
sg26
F0.902
ssS'BIBI PHILIPPE A'
p106
(dp107
g3
F0.1479
sg4
F-0.3001
sg5
F0.2455
sg6
F0.3257
sg7
F-0.184
sg8
F0.0479
sg9
F-0.2152
sg10
I00
sg11
F0.0334
sg12
F-0.0069
sg13
F-0.2535
sg14
F-0.2255
sg15
F0.1164
sg16
F-0.0305
sg17
F-0.1381
sg18
S'philippe.bibi@enron.com'
p108
sg20
F-0.0574
sg21
F0.1243
sg22
F0.5668
sg23
F-0.0873
sg24
F-0.228
sg25
F0.1073
sg26
F-0.3116
ssS'RIEKER PAULA H'
p109
(dp110
g3
F0.024
sg4
F-0.0181
sg5
F0.0038
sg6
F0.1622
sg7
F-0.172
sg8
F-0.0686
sg9
F0.2816
sg10
I01
sg11
F-0.5008
sg12
F-0.0868
sg13
F-0.3
sg14
F-0.0651
sg15
F0.2974
sg16
F-0.1367
sg17
F-0.1031
sg18
S'paula.rieker@enron.com'
p111
sg20
F-0.0574
sg21
F0.2786
sg22
F0.4947
sg23
F-0.0873
sg24
F-0.1993
sg25
F-0.2637
sg26
F-0.3116
ssS'BECK SALLY W'
p112
(dp113
g3
F2.6832
sg4
F-0.3001
sg5
F0.0038
sg6
F0.3257
sg7
F-0.4595
sg8
F0.0173
sg9
F4.4794
sg10
I00
sg11
F-0.5008
sg12
F0.5522
sg13
F-0.3775
sg14
F1.3927
sg15
F0.2064
sg16
F-0.1512
sg17
F-0.4413
sg18
S'sally.beck@enron.com'
p114
sg20
F-0.0574
sg21
F2.8804
sg22
F1.7709
sg23
F-0.0873
sg24
F2.7096
sg25
F-0.2649
sg26
F-0.3116
ssS'HAUG DAVID L'
p115
(dp116
g3
F-0.3113
sg4
F-0.3001
sg5
F-0.5603
sg6
F0.3257
sg7
F-0.1241
sg8
F-0.7912
sg9
F-0.2276
sg10
I00
sg11
F-0.5008
sg12
F-0.4663
sg13
F0.6514
sg14
F-0.4796
sg15
F-0.9703
sg16
F-0.2597
sg17
F-0.4413
sg18
S'david.haug@enron.com'
p117
sg20
F-0.0574
sg21
F-0.3121
sg22
F-0.2326
sg23
F-0.0873
sg24
F-0.2423
sg25
F-0.2654
sg26
F-0.3116
ssS'ECHOLS JOHN B'
p118
(dp119
g3
F-0.5658
sg4
F-0.3001
sg5
F-0.3992
sg6
F0.3257
sg7
F-0.3179
sg8
F-0.3273
sg9
F-0.3146
sg10
I00
sg11
F2.7282
sg12
F-0.1203
sg13
F-0.239
sg14
F-0.5331
sg15
F-0.0432
sg16
F0.0417
sg17
F-0.3169
sg18
S'john.echols@enron.com'
p120
sg20
F-0.0574
sg21
F-0.4452
sg22
F-0.6679
sg23
F-0.0873
sg24
F-0.2553
sg25
F-0.2183
sg26
F-0.3116
ssS'MENDELSOHN JOHN'
p121
(dp122
g3
F-0.5658
sg4
F-0.3001
sg5
F-0.5603
sg6
F0.1561
sg7
F-0.4797
sg8
F-0.7984
sg9
F-0.3146
sg10
I00
sg11
F-0.5008
sg12
F-0.826
sg13
F-0.4395
sg14
F-0.5331
sg15
F-0.9703
sg16
F-0.2597
sg17
F-0.4413
sg18
g29
sg20
F-0.0574
sg21
F-0.4967
sg22
F-0.6679
sg23
F-0.0873
sg24
F-0.2553
sg25
F-0.2654
sg26
F3.1222
ssS'HICKERSON GARY J'
p123
(dp124
g3
F0.0205
sg4
F-0.3001
sg5
F0.8096
sg6
F0.3257
sg7
F-0.4089
sg8
F1.3762
sg9
F-0.3022
sg10
I00
sg11
F-0.4008
sg12
F-0.0535
sg13
F-0.2225
sg14
F0.0018
sg15
F0.107
sg16
F-0.0267
sg17
F-0.4413
sg18
S'gary.hickerson@enron.com'
p125
sg20
F-0.0574
sg21
F0.2792
sg22
F0.1639
sg23
F-0.0873
sg24
F-0.2369
sg25
F-0.2637
sg26
F-0.3116
ssS'CLINE KENNETH W'
p126
(dp127
g3
F-0.5658
sg4
F-0.3001
sg5
F-0.5603
sg6
F0.3257
sg7
F-0.4493
sg8
F-0.8017
sg9
F-0.3146
sg10
I00
sg11
F-0.5008
sg12
F-0.6572
sg13
F-0.1138
sg14
F-0.5331
sg15
F-0.9703
sg16
F-0.2597
sg17
F-0.4413
sg18
g29
sg20
F-0.4165
sg21
F-0.3606
sg22
F-0.6679
sg23
F-0.0873
sg24
F-0.2553
sg25
F-0.2654
sg26
F-0.3116
ssS'LEWIS RICHARD'
p128
(dp129
g3
F-0.143
sg4
F-0.3001
sg5
F-0.5603
sg6
F0.3257
sg7
F-0.3433
sg8
F-0.8017
sg9
F-0.3146
sg10
I00
sg11
F-0.5008
sg12
F-0.5566
sg13
F-0.4395
sg14
F-0.3994
sg15
F-0.9703
sg16
F-0.2597
sg17
F-0.2654
sg18
S'richard.lewis@enron.com'
p130
sg20
F-0.0574
sg21
F-0.1102
sg22
F0.0151
sg23
F-0.0873
sg24
F-0.2376
sg25
F-0.2654
sg26
F-0.3116
ssS'HAYES ROBERT E'
p131
(dp132
g3
F-0.342
sg4
F-0.2896
sg5
F-0.5603
sg6
F0.3257
sg7
F-0.4554
sg8
F-0.8017
sg9
F-0.3146
sg10
I00
sg11
F-0.5008
sg12
F-0.6495
sg13
F-0.365
sg14
F-0.3192
sg15
F-0.9703
sg16
F-0.2588
sg17
F-0.4413
sg18
S'robert.hayes@enron.com'
p133
sg20
F-0.0574
sg21
F-0.2424
sg22
F-0.6217
sg23
F-0.0873
sg24
F-0.2471
sg25
F-0.2654
sg26
F-0.3116
ssS'MCCARTY DANNY J'
p134
(dp135
g3
F0.0706
sg4
F-0.3001
sg5
F-0.5603
sg6
F0.3257
sg7
F-0.358
sg8
F-0.8017
sg9
F-0.2897
sg10
I00
sg11
F-0.5008
sg12
F-0.5387
sg13
F-0.393
sg14
F-0.1988
sg15
F-0.9703
sg16
F-0.2597
sg17
F-0.3039
sg18
S'danny.mccarty@enron.com'
p136
sg20
F-0.0574
sg21
F-0.0406
sg22
F-0.1984
sg23
F-0.0873
sg24
F-0.1085
sg25
F-0.2654
sg26
F-0.3116
ssS'KOPPER MICHAEL J'
p137
(dp138
g3
F-0.5658
sg4
F-0.3001
sg5
F0.0844
sg6
F0.3257
sg7
F-0.3217
sg8
F1.8011
sg9
F-0.3146
sg10
I01
sg11
F0.37
sg12
F-0.0646
sg13
F0.0451
sg14
F-0.5331
sg15
F0.1707
sg16
F0.0372
sg17
F-0.4413
sg18
S'michael.kopper@enron.com'
p139
sg20
F-0.0574
sg21
F-0.3315
sg22
F-0.6679
sg23
F-0.0873
sg24
F-0.2553
sg25
F0.5291
sg26
F-0.3116
ssS'LEFF DANIEL P'
p140
(dp141
g3
F0.6876
sg4
F-0.3001
sg5
F0.2455
sg6
F0.3257
sg7
F-0.4219
sg8
F-0.8017
sg9
F-0.1407
sg10
I00
sg11
F1.5038
sg12
F0.2506
sg13
F-0.2621
sg14
F0.3629
sg15
F0.4222
sg16
F0.0385
sg17
F-0.4413
sg18
S'dan.leff@enron.com'
p142
sg20
F-0.0574
sg21
F0.6593
sg22
F1.8014
sg23
F-0.0873
sg24
F-0.2123
sg25
F-0.2627
sg26
F-0.3116
ssS'LAVORATO JOHN J'
p143
(dp144
g3
F2.6583
sg4
F-0.3001
sg5
F5.8866
sg6
F0.3257
sg7
F0.3489
sg8
F0.2897
sg9
F4.7899
sg10
I00
sg11
F2.4401
sg12
F2.5456
sg13
F0.0565
sg14
F6.5282
sg15
F0.7556
sg16
F0.9073
sg17
F0.419
sg18
S'john.lavorato@enron.com'
p145
sg20
F-0.0574
sg21
F4.0279
sg22
F2.9936
sg23
F-0.0873
sg24
F1.5094
sg25
F-0.264
sg26
F-0.3116
ssS'BERBERIAN DAVID'
p146
(dp147
g3
F-0.5658
sg4
F-0.3001
sg5
F-0.5603
sg6
F0.3257
sg7
F-0.0798
sg8
F-0.5396
sg9
F-0.3146
sg10
I00
sg11
F-0.5008
sg12
F-0.4165
sg13
F-0.0119
sg14
F-0.5331
sg15
F0.1314
sg16
F-0.2341
sg17
F-0.1053
sg18
S'david.berberian@enron.com'
p148
sg20
F-0.0574
sg21
F-0.4302
sg22
F-0.6679
sg23
F-0.0873
sg24
F-0.2553
sg25
F-0.2654
sg26
F-0.3116
ssS'DETMERING TIMOTHY J'
p149
(dp150
g3
F-0.5658
sg4
F0.8498
sg5
F-0.2178
sg6
F-0.9419
sg7
F-0.1545
sg8
F0.3496
sg9
F-0.3146
sg10
I00
sg11
F0.0998
sg12
F-0.1649
sg13
F-0.2845
sg14
F-0.5331
sg15
F0.1005
sg16
F-0.1249
sg17
F-0.0218
sg18
S'timothy.detmering@enron.com'
p151
sg20
F-0.2968
sg21
F-0.3105
sg22
F-0.6679
sg23
F-0.0873
sg24
F-0.2553
sg25
F-0.2644
sg26
F-0.3116
ssS'WAKEHAM JOHN'
p152
(dp153
g3
F-0.5658
sg4
F-0.3001
sg5
F-0.5603
sg6
F0.3257
sg7
F-0.4797
sg8
F1.4847
sg9
F-0.3146
sg10
I00
sg11
F-0.5008
sg12
F-0.7325
sg13
F-0.4395
sg14
F-0.5331
sg15
F-0.9703
sg16
F-0.2359
sg17
F-0.4413
sg18
g29
sg20
F-0.0574
sg21
F-0.3875
sg22
F-0.6679
sg23
F-0.0873
sg24
F-0.2553
sg25
F-0.2654
sg26
F3.3059
ssS'POWERS WILLIAM'
p154
(dp155
g3
F-0.2758
sg4
F-0.3001
sg5
F-0.5603
sg6
F0.2971
sg7
F-0.4797
sg8
F-0.8017
sg9
F-0.3146
sg10
I00
sg11
F-0.5008
sg12
F-0.6975
sg13
F-0.4395
sg14
F-0.5331
sg15
F-0.9703
sg16
F-0.2597
sg17
F-0.4413
sg18
S'ken.powers@enron.com'
p156
sg20
F-0.0574
sg21
F-0.29
sg22
F-0.6568
sg23
F-0.0873
sg24
F-0.2376
sg25
F-0.2654
sg26
F0.2676
ssS'GOLD JOSEPH'
p157
(dp158
g3
F-0.5658
sg4
F-0.3001
sg5
F0.0441
sg6
F0.3257
sg7
F-0.3389
sg8
F-0.8017
sg9
F-0.3146
sg10
I00
sg11
F-0.0604
sg12
F-0.243
sg13
F-0.2225
sg14
F-0.5331
sg15
F0.4178
sg16
F-0.0194
sg17
F-0.351
sg18
S'joe.gold@enron.com'
p159
sg20
F-0.0574
sg21
F-0.4241
sg22
F-0.6679
sg23
F-0.0873
sg24
F-0.2553
sg25
F0.4518
sg26
F-0.3116
ssS'BANNANTINE JAMES M'
p160
(dp161
g3
F-0.3144
sg4
F-0.3001
sg5
F-0.5603
sg6
F0.3174
sg7
F0.3612
sg8
F0.4388
sg9
F-0.3146
sg10
I00
sg11
F-0.5008
sg12
F-0.1411
sg13
F0.4252
sg14
F-0.0116
sg15
F-0.9678
sg16
F-0.1572
sg17
F0.3957
sg18
S'james.bannantine@enron.com'
p162
sg20
F-0.4832
sg21
F-0.425
sg22
F-0.2381
sg23
F-0.0873
sg24
F-0.2355
sg25
F0.4914
sg26
F-0.3116
ssS'DUNCAN JOHN H'
p163
(dp164
g3
F-0.5658
sg4
F-0.3001
sg5
F-0.5603
sg6
F0.2849
sg7
F-0.4201
sg8
F-0.8017
sg9
F-0.3146
sg10
I00
sg11
F-0.5008
sg12
F-0.8151
sg13
F-0.4395
sg14
F-0.5331
sg15
F-0.9703
sg16
F-0.251
sg17
F-0.3644
sg18
g29
sg20
F-0.0574
sg21
F-0.5151
sg22
F-0.6679
sg23
F-0.0873
sg24
F-0.2553
sg25
F-0.2654
sg26
F3.0806
ssS'SHAPIRO RICHARD S'
p165
(dp166
g3
F6.1628
sg4
F-0.3001
sg5
F-0.0365
sg6
F0.3257
sg7
F-0.3214
sg8
F2.2336
sg9
F0.4927
sg10
I00
sg11
F-0.5008
sg12
F0.8175
sg13
F-0.253
sg14
F0.4565
sg15
F0.3985
sg16
F-0.1413
sg17
F-0.3156
sg18
S'richard.shapiro@enron.com'
p167
sg20
F-0.0574
sg21
F2.6815
sg22
F3.5157
sg23
F-0.0873
sg24
F0.5742
sg25
F-0.2648
sg26
F-0.3116
ssS'SHERRIFF JOHN R'
p168
(dp169
g3
F0.8497
sg4
F-0.3001
sg5
F0.6485
sg6
F0.3257
sg7
F0.0221
sg8
F-0.8017
sg9
F-0.0289
sg10
I00
sg11
F0.3003
sg12
F0.5681
sg13
F0.1968
sg14
F-0.1587
sg15
F1.2108
sg16
F0.2256
sg17
F-0.0616
sg18
S'john.sherriff@enron.com'
p170
sg20
F-0.0574
sg21
F0.222
sg22
F1.2756
sg23
F-0.0873
sg24
F-0.1925
sg25
F1.3561
sg26
F-0.3116
ssS'SHELBY REX'
p171
(dp172
g3
F-0.4659
sg4
F-0.3001
sg5
F-0.3992
sg6
F0.3189
sg7
F-0.0798
sg8
F-0.2975
sg9
F-0.1407
sg10
I01
sg11
F-0.5008
sg12
F-0.1588
sg13
F-0.0119
sg14
F-0.3593
sg15
F0.1073
sg16
F-0.0354
sg17
F-0.1053
sg18
S'rex.shelby@enron.com'
p173
sg20
F-0.0574
sg21
F-0.4896
sg22
F-0.5838
sg23
F-0.0873
sg24
F-0.2287
sg25
F1.112
sg26
F-0.3116
ssS'LEMAISTRE CHARLES'
p174
(dp175
g3
F-0.5658
sg4
F-0.3001
sg5
F-0.5603
sg6
F0.2849
sg7
F-0.4135
sg8
F-0.8017
sg9
F-0.3146
sg10
I00
sg11
F-0.5008
sg12
F-0.8262
sg13
F-0.4395
sg14
F-0.5331
sg15
F-0.9703
sg16
F-0.2499
sg17
F-0.3559
sg18
g29
sg20
F-0.0574
sg21
F-0.5334
sg22
F-0.6679
sg23
F-0.0873
sg24
F-0.2553
sg25
F-0.2654
sg26
F3.4116
ssS'DEFFNER JOSEPH M'
p176
(dp177
g3
F-0.2487
sg4
F-0.3001
sg5
F-0.0768
sg6
F0.3257
sg7
F-0.4541
sg8
F0.1154
sg9
F-0.2649
sg10
I00
sg11
F-0.0162
sg12
F-0.1861
sg13
F-0.3697
sg14
F1.0048
sg15
F0.0782
sg16
F-0.1244
sg17
F-0.4377
sg18
S'joseph.deffner@enron.com'
p178
sg20
F-0.0574
sg21
F0.2238
sg22
F-0.1577
sg23
F-0.0873
sg24
F-0.2048
sg25
F-0.243
sg26
F-0.3116
ssS'KISHKILL JOSEPH G'
p179
(dp180
g3
F-0.5658
sg4
F-0.3001
sg5
F-0.5603
sg6
F0.2423
sg7
F-0.3138
sg8
F1.7614
sg9
F-0.3146
sg10
I00
sg11
F-0.5008
sg12
F-0.3311
sg13
F0.0694
sg14
F-0.5331
sg15
F-0.0839
sg16
F-0.1808
sg17
F-0.4413
sg18
S'joe.kishkill@enron.com'
p181
sg20
F-0.0574
sg21
F-0.3037
sg22
F-0.6679
sg23
F-0.0873
sg24
F-0.2553
sg25
F0.142
sg26
F-0.3116
ssS'WHALLEY LAWRENCE G'
p182
(dp183
g3
F2.1076
sg4
F-0.3001
sg5
F1.8573
sg6
F0.3257
sg7
F0.4952
sg8
F0.4726
sg9
F-0.0165
sg10
I00
sg11
F0.6672
sg12
F1.3215
sg13
F0.9361
sg14
F1.9544
sg15
F1.6258
sg16
F0.2639
sg17
F0.2378
sg18
S'greg.whalley@enron.com'
p184
sg20
F-0.0574
sg21
F1.4621
sg22
F2.9548
sg23
F-0.0873
sg24
F0.1243
sg25
F-0.0019
sg26
F-0.3116
ssS'PIRO JIM'
p185
(dp186
g3
F-0.5401
sg4
F-0.3001
sg5
F-0.5603
sg6
F0.3257
sg7
F-0.4721
sg8
F-0.8017
sg9
F-0.3022
sg10
I00
sg11
F-0.5008
sg12
F-0.6944
sg13
F-0.4162
sg14
F-0.5331
sg15
F-0.9703
sg16
F-0.2597
sg17
F-0.4413
sg18
S'jim.piro@enron.com'
p187
sg20
F-0.0574
sg21
F-0.3237
sg22
F-0.6651
sg23
F-0.0873
sg24
F-0.2444
sg25
F-0.2654
sg26
F-0.3116
ssS'MCCONNELL MICHAEL S'
p188
(dp189
g3
F0.9128
sg4
F-0.3001
sg5
F0.3261
sg6
F0.3257
sg7
F0.0176
sg8
F0.9909
sg9
F2.0948
sg10
I00
sg11
F0.3003
sg12
F0.5969
sg13
F0.2878
sg14
F0.6972
sg15
F0.8866
sg16
F-0.0245
sg17
F-0.1056
sg18
S'mike.mcconnell@enron.com'
p190
sg20
F-0.0574
sg21
F1.4704
sg22
F1.3551
sg23
F-0.0873
sg24
F1.6166
sg25
F-0.2649
sg26
F-0.3116
ssS'DELAINEY DAVID W'
p191
(dp192
g3
F0.808
sg4
F-0.3001
sg5
F1.8573
sg6
F0.3257
sg7
F0.0999
sg8
F1.0969
sg9
F7.249
sg10
I01
sg11
F1.3703
sg12
F1.1765
sg13
F0.2114
sg14
F0.3495
sg15
F0.8872
sg16
F0.2718
sg17
F0.0326
sg18
S'david.delainey@enron.com'
p193
sg20
F-0.0574
sg21
F2.5676
sg22
F1.2701
sg23
F-0.0873
sg24
F1.8398
sg25
F-0.264
sg26
F-0.3116
ssS'SULLIVAN-SHAKLOVITZ COLLEEN'
p194
(dp195
g3
F-0.5658
sg4
F-0.061
sg5
F-0.4797
sg6
F0.3257
sg7
F-0.2612
sg8
F-0.8017
sg9
F-0.3146
sg10
I00
sg11
F0.3003
sg12
F-0.4259
sg13
F-0.4395
sg14
F-0.5331
sg15
F-0.1423
sg16
F-0.1479
sg17
F-0.1595
sg18
g29
sg20
F-0.0574
sg21
F-0.3954
sg22
F-0.6679
sg23
F-0.0873
sg24
F-0.2553
sg25
F-0.2653
sg26
F-0.3116
ssS'LINDHOLM TOD A'
p196
(dp197
g3
F-0.5658
sg4
F-0.032
sg5
F-0.3992
sg6
F0.3257
sg7
F0.0117
sg8
F0.4702
sg9
F-0.3146
sg10
I00
sg11
F-0.2479
sg12
F-0.2769
sg13
F-0.1862
sg14
F-0.5331
sg15
F0.2325
sg16
F-0.1617
sg17
F0.086
sg18
S'tod.lindholm@enron.com'
p198
sg20
F-0.0574
sg21
F-0.3873
sg22
F-0.6679
sg23
F-0.0873
sg24
F-0.2553
sg25
F-0.2631
sg26
F-0.3116
ssS'MEYER JEROME J'
p199
(dp200
g3
F-0.5658
sg4
F-0.3001
sg5
F-0.5603
sg6
F0.263
sg7
F-0.4797
sg8
F-0.7543
sg9
F-0.3146
sg10
I00
sg11
F-0.5008
sg12
F-0.7451
sg13
F-0.4395
sg14
F-0.5331
sg15
F-0.9703
sg16
F-0.2595
sg17
F-0.4413
sg18
g29
sg20
F-0.0574
sg21
F-0.3898
sg22
F-0.6679
sg23
F-0.0873
sg24
F-0.2553
sg25
F-0.2654
sg26
F0.9576
ssS'LAY KENNETH L'
p201
(dp202
g3
F1.3321
sg4
F-0.0335
sg5
F5.0807
sg6
F-0.1648
sg7
F7.3958
sg8
F1.3978
sg9
F-0.1159
sg10
I01
sg11
F4.7008
sg12
F8.2565
sg13
F6.8229
sg14
F1.1118
sg15
F4.4844
sg16
F11.3328
sg17
F6.6639
sg18
S'kenneth.lay@enron.com'
p203
sg20
F-0.0574
sg21
F-5.2168
sg22
F1.5602
sg23
F11.7861
sg24
F-0.2307
sg25
F8.804
sg26
F-0.3116
ssS'BUTTS ROBERT H'
p204
(dp205
g3
F-0.5658
sg4
F-0.3001
sg5
F0.0441
sg6
F0.2031
sg7
F-0.4127
sg8
F-0.5943
sg9
F-0.3146
sg10
I00
sg11
F-0.2479
sg12
F-0.3545
sg13
F-0.234
sg14
F-0.5331
sg15
F0.36
sg16
F-0.1174
sg17
F-0.4413
sg18
S'bob.butts@enron.com'
p206
sg20
F-0.0574
sg21
F-0.2996
sg22
F-0.6679
sg23
F-0.0873
sg24
F-0.2553
sg25
F-0.1335
sg26
F-0.3116
ssS'OLSON CINDY K'
p207
(dp208
g3
F-0.0399
sg4
F-0.198
sg5
F0.0441
sg6
F0.3257
sg7
F-0.0617
sg8
F0.6038
sg9
F-0.1283
sg10
I00
sg11
F-0.3563
sg12
F-0.0262
sg13
F0.0376
sg14
F-0.2657
sg15
F0.7037
sg16
F-0.1118
sg17
F-0.1027
sg18
S'cindy.olson@enron.com'
p209
sg20
F-0.0574
sg21
F0.0497
sg22
F0.1232
sg23
F-0.0873
sg24
F-0.2198
sg25
F-0.2646
sg26
F-0.3116
ssS'MCDONALD REBECCA'
p210
(dp211
g3
F-0.1688
sg4
F-0.3001
sg5
F-0.5603
sg6
F0.3257
sg7
F-0.2084
sg8
F-0.8017
sg9
F-0.3022
sg10
I00
sg11
F-0.5008
sg12
F-0.4466
sg13
F0.02
sg14
F0.189
sg15
F-0.9703
sg16
F-0.2597
sg17
F-0.2847
sg18
S'rebecca.mcdonald@enron.com'
p212
sg20
F-0.0574
sg21
F-0.0722
sg22
F-0.0025
sg23
F-0.0873
sg24
F-0.2464
sg25
F-0.2654
sg26
F-0.3116
ssS'CUMBERLAND MICHAEL S'
p213
(dp214
g3
F-0.5658
sg4
F-0.3001
sg5
F-0.2984
sg6
F0.3257
sg7
F-0.4463
sg8
F-0.3094
sg9
F-0.3146
sg10
I00
sg11
F-0.1034
sg12
F-0.4622
sg13
F-0.3372
sg14
F-0.5331
sg15
F-0.0297
sg16
F-0.1693
sg17
F-0.4413
sg18
g29
sg20
F-0.0574
sg21
F-0.2922
sg22
F-0.6679
sg23
F-0.0873
sg24
F-0.2553
sg25
F-0.2648
sg26
F-0.3116
ssS'GAHN ROBERT S'
p215
(dp216
g3
F-0.5658
sg4
F-0.204
sg5
F-0.1494
sg6
F0.324
sg7
F-0.4286
sg8
F0.3017
sg9
F-0.3146
sg10
I00
sg11
F-0.5008
sg12
F-0.4312
sg13
F-0.3237
sg14
F-0.5331
sg15
F0.0064
sg16
F-0.1589
sg17
F-0.4241
sg18
g29
sg20
F-0.0574
sg21
F-0.2491
sg22
F-0.6679
sg23
F-0.0873
sg24
F-0.2553
sg25
F-0.1984
sg26
F-0.3116
ssS'MCCLELLAN GEORGE'
p217
(dp218
g3
F0.2088
sg4
F-0.3001
sg5
F0.165
sg6
F0.1214
sg7
F-0.3277
sg8
F4.2384
sg9
F-0.3146
sg10
I00
sg11
F-0.5008
sg12
F0.1274
sg13
F-0.2225
sg14
F0.1623
sg15
F0.3696
sg16
F-0.1121
sg17
F-0.3365
sg18
S'george.mcclellan@enron.com'
p219
sg20
F-0.0574
sg21
F0.5476
sg22
F0.6897
sg23
F-0.0873
sg24
F-0.2219
sg25
F-0.2202
sg26
F-0.3116
ssS'HERMANN ROBERT J'
p220
(dp221
g3
F-0.5658
sg4
F-0.3001
sg5
F0.0038
sg6
F-0.1321
sg7
F-0.3725
sg8
F0.2637
sg9
F-0.3146
sg10
I00
sg11
F-0.284
sg12
F-0.2624
sg13
F-0.203
sg14
F-0.5331
sg15
F0.3658
sg16
F-0.1145
sg17
F-0.4025
sg18
S'robert.hermann@enron.com'
p222
sg20
F-0.0574
sg21
F-0.2948
sg22
F-0.6679
sg23
F-0.0873
sg24
F-0.2553
sg25
F0.0992
sg26
F-0.3116
ssS'SCRIMSHAW MATTHEW'
p223
(dp224
g3
F-0.5658
sg4
F-0.3001
sg5
F-0.5603
sg6
F0.3257
sg7
F-0.3579
sg8
F-0.8017
sg9
F-0.3146
sg10
I00
sg11
F-0.5008
sg12
F-0.6692
sg13
F-0.4395
sg14
F-0.5331
sg15
F-0.9703
sg16
F-0.2597
sg17
F-0.2842
sg18
S'matthew.scrimshaw@enron.com'
p225
sg20
F-0.0574
sg21
F-0.3669
sg22
F-0.6679
sg23
F-0.0873
sg24
F-0.2553
sg25
F-0.2654
sg26
F-0.3116
ssS'GATHMANN WILLIAM D'
p226
(dp227
g3
F-0.5658
sg4
F-0.3001
sg5
F-0.5603
sg6
F0.3257
sg7
F-0.1677
sg8
F-0.8017
sg9
F-0.3146
sg10
I00
sg11
F-0.5008
sg12
F-0.6085
sg13
F-0.3096
sg14
F-0.5331
sg15
F-0.9703
sg16
F-0.2597
sg17
F-0.0785
sg18
g29
sg20
F-0.1124
sg21
F-0.43
sg22
F-0.6679
sg23
F-0.0873
sg24
F-0.2553
sg25
F-0.2654
sg26
F-0.3116
ssS'HAEDICKE MARK E'
p228
(dp229
g3
F1.2148
sg4
F2.5343
sg5
F0.3664
sg6
F-1.2023
sg7
F-0.3509
sg8
F0.8765
sg9
F0.443
sg10
I00
sg11
F0.92
sg12
F0.7837
sg13
F-0.1816
sg14
F1.8741
sg15
F0.9328
sg16
F0.1723
sg17
F-0.3154
sg18
S'mark.haedicke@enron.com'
p230
sg20
F-0.3081
sg21
F1.3936
sg22
F1.039
sg23
F-0.0873
sg24
F1.0698
sg25
F-0.2196
sg26
F-0.3116
ssS'BOWEN JR RAYMOND M'
p231
(dp232
g3
F0.2594
sg4
F-0.3001
sg5
F0.5276
sg6
F0.3244
sg7
F-0.4393
sg8
F0.6504
sg9
F-0.1283
sg10
I01
sg11
F0.907
sg12
F0.2417
sg13
F-0.3155
sg14
F1.3392
sg15
F0.4469
sg16
F0.0391
sg17
F-0.4413
sg18
S'raymond.bowen@enron.com'
p233
sg20
F-0.0574
sg21
F0.6647
sg22
F0.8043
sg23
F-0.0873
sg24
F-0.2369
sg25
F-0.264
sg26
F-0.3116
ssS'GILLIS JOHN'
p234
(dp235
g3
F-0.5658
sg4
F-0.3001
sg5
F-0.5603
sg6
F0.3257
sg7
F-0.4659
sg8
F-0.8017
sg9
F-0.3146
sg10
I00
sg11
F-0.5008
sg12
F-0.6951
sg13
F-0.4022
sg14
F-0.5331
sg15
F-0.9703
sg16
F-0.2597
sg17
F-0.4393
sg18
g29
sg20
F-0.0574
sg21
F-0.3369
sg22
F-0.6679
sg23
F-0.0873
sg24
F-0.2553
sg25
F-0.2654
sg26
F-0.3116
ssS'FASTOW ANDREW S'
p236
(dp237
g3
F-0.5658
sg4
F-0.3001
sg5
F0.4873
sg6
F-1.9406
sg7
F-0.1919
sg8
F0.4304
sg9
F-0.3146
sg10
I01
sg11
F2.0076
sg12
F0.3421
sg13
F0.4433
sg14
F-0.5331
sg15
F1.2715
sg16
F0.0116
sg17
F-0.4413
sg18
S'andrew.fastow@enron.com'
p238
sg20
F-0.0574
sg21
F-0.3352
sg22
F-0.6679
sg23
F-0.0873
sg24
F-0.2553
sg25
F-0.0225
sg26
F-0.3116
ssS'FITZGERALD JAY L'
p239
(dp240
g3
F-0.1501
sg4
F-0.3001
sg5
F-0.2783
sg6
F0.3257
sg7
F-0.2197
sg8
F-0.2758
sg9
F-0.2152
sg10
I00
sg11
F0.3032
sg12
F-0.1847
sg13
F0.0312
sg14
F-0.5198
sg15
F0.0428
sg16
F-0.1013
sg17
F-0.3039
sg18
S'jay.fitzgerald@enron.com'
p241
sg20
F-0.0574
sg21
F-0.1668
sg22
F0.0003
sg23
F-0.0873
sg24
F-0.2444
sg25
F-0.0155
sg26
F-0.3116
ssS'MORAN MICHAEL P'
p242
(dp243
g3
F-0.2674
sg4
F-0.3001
sg5
F-0.5603
sg6
F0.3257
sg7
F-0.4442
sg8
F-0.8017
sg9
F-0.3146
sg10
I00
sg11
F-0.5008
sg12
F-0.6515
sg13
F-0.36
sg14
F-0.5331
sg15
F-0.9703
sg16
F-0.2597
sg17
F-0.429
sg18
S'michael.moran@enron.com'
p244
sg20
F-0.0574
sg21
F-0.2535
sg22
F-0.5505
sg23
F-0.0873
sg24
F-0.2423
sg25
F-0.2654
sg26
F-0.3116
ssS'REDMOND BRIAN L'
p245
(dp246
g3
F0.1764
sg4
F-0.3001
sg5
F-0.5603
sg6
F0.3257
sg7
F0.7856
sg8
F-0.478
sg9
F0.294
sg10
I00
sg11
F-0.5008
sg12
F0.1297
sg13
F-0.2519
sg14
F2.1951
sg15
F-0.4777
sg16
F-0.2472
sg17
F1.112
sg18
S'brian.redmond@enron.com'
p247
sg20
F-0.0574
sg21
F0.3391
sg22
F0.3145
sg23
F-0.0873
sg24
F-0.1044
sg25
F-0.2654
sg26
F-0.3116
ssS'BAZELIDES PHILIP J'
p248
(dp249
g3
F-0.5658
sg4
F0.5994
sg5
F-0.5603
sg6
F0.3257
sg7
F-0.2232
sg8
F-0.8017
sg9
F-0.3146
sg10
I00
sg11
F-0.3653
sg12
F-0.5164
sg13
F-0.4395
sg14
F-0.5331
sg15
F-0.5592
sg16
F-0.1634
sg17
F-0.1104
sg18
g29
sg20
F-0.0574
sg21
F-0.3947
sg22
F-0.6679
sg23
F-0.0873
sg24
F-0.2553
sg25
F-0.2646
sg26
F-0.3116
ssS'BELDEN TIMOTHY N'
p250
(dp251
g3
F2.9835
sg4
F2.5166
sg5
F3.6705
sg6
F-3.4914
sg7
F-0.3016
sg8
F-0.4193
sg9
F1.0267
sg10
I01
sg11
F-0.5008
sg12
F1.5595
sg13
F-0.362
sg14
F2.5161
sg15
F0.1183
sg16
F0.3561
sg17
F-0.2441
sg18
S'tim.belden@enron.com'
p252
sg20
F-0.0574
sg21
F2.7786
sg22
F4.4343
sg23
F-0.0873
sg24
F0.0751
sg25
F-0.081
sg26
F-0.3116
ssS'DURAN WILLIAM D'
p253
(dp254
g3
F-0.1643
sg4
F-0.3001
sg5
F0.0441
sg6
F0.3257
sg7
F-0.2165
sg8
F-0.2336
sg9
F-0.2773
sg10
I00
sg11
F1.0961
sg12
F0.0002
sg13
F-0.3465
sg14
F0.8845
sg15
F0.1015
sg16
F-0.0254
sg17
F-0.141
sg18
S'w.duran@enron.com'
p255
sg20
F-0.0574
sg21
F0.1044
sg22
F-0.1143
sg23
F-0.0873
sg24
F-0.2471
sg25
F-0.264
sg26
F-0.3116
ssS'THORN TERENCE H'
p256
(dp257
g3
F-0.4477
sg4
F-0.2783
sg5
F-0.5603
sg6
F0.3257
sg7
F0.2929
sg8
F0.215
sg9
F-0.3146
sg10
I00
sg11
F-0.2118
sg12
F-0.1951
sg13
F-0.2598
sg14
F-0.5331
sg15
F0.1595
sg16
F-0.1577
sg17
F0.4797
sg18
S'terence.thorn@enron.com'
p258
sg20
F-0.0574
sg21
F-0.5051
sg22
F-0.6004
sg23
F-0.0873
sg24
F-0.2273
sg25
F0.1081
sg26
F-0.3116
ssS'FOY JOE'
p259
(dp260
g3
F-0.5405
sg4
F-0.0613
sg5
F-0.5603
sg6
F0.3257
sg7
F-0.4246
sg8
F-0.8017
sg9
F-0.3146
sg10
I00
sg11
F-0.5008
sg12
F-0.6709
sg13
F-0.4395
sg14
F-0.5331
sg15
F-0.9703
sg16
F-0.2394
sg17
F-0.3703
sg18
S'tracy.foy@enron.com'
p261
sg20
F-0.0574
sg21
F-0.3379
sg22
F-0.666
sg23
F-0.0873
sg24
F-0.2464
sg25
F-0.2654
sg26
F-0.3116
ssS'CALGER CHRISTOPHER F'
p262
(dp263
g3
F0.5881
sg4
F-0.3001
sg5
F0.447
sg6
F-0.1035
sg7
F-0.4595
sg8
F-0.0125
sg9
F-0.0041
sg10
I01
sg11
F0.0415
sg12
F0.2402
sg13
F-0.3775
sg14
F2.1282
sg15
F0.2515
sg16
F-0.0762
sg17
F-0.4413
sg18
S'christopher.calger@enron.com'
p264
sg20
F-0.0574
sg21
F1.0371
sg22
F1.3542
sg23
F-0.0873
sg24
F-0.157
sg25
F-0.265
sg26
F-0.3116
ssS'RICE KENNETH D'
p265
(dp266
g3
F-0.1639
sg4
F-0.3001
sg5
F0.8499
sg6
F-5.4044
sg7
F3.1353
sg8
F0.2327
sg9
F-0.2649
sg10
I01
sg11
F1.8356
sg12
F1.5673
sg13
F0.9126
sg14
F0.0286
sg15
F1.1694
sg16
F-0.2032
sg17
F3.6532
sg18
S'ken.rice@enron.com'
p267
sg20
F-0.0574
sg21
F-0.8629
sg22
F0.1306
sg23
F-0.0873
sg24
F-0.243
sg25
F-0.1123
sg26
F-0.3116
ssS'KAMINSKI WINCENTY J'
p268
(dp269
g3
F1.4804
sg4
F-0.3001
sg5
F-0.238
sg6
F0.3257
sg7
F-0.3232
sg8
F1.0399
sg9
F1.8092
sg10
I00
sg11
F-0.0334
sg12
F0.3731
sg13
F-0.3775
sg14
F0.0152
sg15
F0.4291
sg16
F-0.1381
sg17
F-0.2655
sg18
S'vince.kaminski@enron.com'
p270
sg20
F-0.0574
sg21
F2.5738
sg22
F-0.1291
sg23
F-0.0873
sg24
F9.5535
sg25
F-0.2613
sg26
F-0.3116
ssS'COX DAVID'
p271
(dp272
g3
F-0.5205
sg4
F-0.3001
sg5
F0.0844
sg6
F0.2583
sg7
F-0.4002
sg8
F-0.1878
sg9
F-0.2649
sg10
I00
sg11
F-0.5008
sg12
F-0.329
sg13
F-0.2535
sg14
F-0.5331
sg15
F0.6284
sg16
F-0.1364
sg17
F-0.417
sg18
S'chip.cox@enron.com'
p273
sg20
F-0.0574
sg21
F-0.2074
sg22
F-0.6022
sg23
F-0.0873
sg24
F-0.2328
sg25
F-0.265
sg26
F-0.3116
ssS'OVERDYKE JR JERE C'
p274
(dp275
g3
F-0.5658
sg4
F-0.3001
sg5
F-0.5603
sg6
F0.3257
sg7
F0.6922
sg8
F-0.3867
sg9
F-0.3146
sg10
I00
sg11
F-0.3045
sg12
F-0.2255
sg13
F0.5646
sg14
F-0.5331
sg15
F-0.4873
sg16
F-0.2318
sg17
F0.6481
sg18
S'jere.overdyke@enron.com'
p276
sg20
F-0.0574
sg21
F-0.6982
sg22
F-0.6679
sg23
F-0.0873
sg24
F-0.2553
sg25
F-0.2653
sg26
F-0.3116
ssS'PEREIRA PAULO V. FERRAZ'
p277
(dp278
g3
F-0.5658
sg4
F-0.3001
sg5
F-0.5603
sg6
F0.1602
sg7
F-0.4797
sg8
F-0.186
sg9
F-0.3146
sg10
I00
sg11
F-0.5008
sg12
F-0.7938
sg13
F-0.4395
sg14
F-0.5331
sg15
F-0.9703
sg16
F-0.2566
sg17
F-0.4413
sg18
g29
sg20
F-0.0574
sg21
F-0.46
sg22
F-0.6679
sg23
F-0.0873
sg24
F-0.2553
sg25
F-0.2654
sg26
F3.0395
ssS'STABLER FRANK'
p279
(dp280
g3
F-0.5658
sg4
F-0.3001
sg5
F-0.1574
sg6
F0.3257
sg7
F-0.3976
sg8
F-0.4378
sg9
F-0.3146
sg10
I00
sg11
F-0.5008
sg12
F-0.3924
sg13
F-0.1877
sg14
F-0.5331
sg15
F0.248
sg16
F-0.1352
sg17
F-0.4413
sg18
S'frank.stabler@enron.com'
p281
sg20
F-0.0574
sg21
F-0.335
sg22
F-0.6679
sg23
F-0.0873
sg24
F-0.2553
sg25
F0.0463
sg26
F-0.3116
ssS'SKILLING JEFFREY K'
p282
(dp283
g3
F1.0451
sg4
F-0.3001
sg5
F3.9525
sg6
F0.3257
sg7
F3.7048
sg8
F-0.1553
sg9
F0.058
sg10
I01
sg11
F2.2734
sg12
F2.7335
sg13
F2.9274
sg14
F0.6438
sg15
F4.6824
sg16
F0.7122
sg17
F3.5407
sg18
S'jeff.skilling@enron.com'
p284
sg20
F-0.0574
sg21
F-0.2775
sg22
F1.2192
sg23
F-0.0873
sg24
F-0.1816
sg25
F-0.246
sg26
F-0.3116
ssS'BLAKE JR. NORMAN P'
p285
(dp286
g3
F-0.5658
sg4
F-0.3001
sg5
F-0.5603
sg6
F0.1397
sg7
F-0.4797
sg8
F-0.7735
sg9
F-0.3146
sg10
I00
sg11
F-0.5008
sg12
F-0.8369
sg13
F-0.4395
sg14
F-0.5331
sg15
F-0.9703
sg16
F-0.2596
sg17
F-0.4413
sg18
g29
sg20
F-0.0574
sg21
F-0.5114
sg22
F-0.6679
sg23
F-0.0873
sg24
F-0.2553
sg25
F-0.2654
sg26
F3.4543
ssS'SHERRICK JEFFREY B'
p287
(dp288
g3
F-0.2936
sg4
F-0.3001
sg5
F-0.5603
sg6
F0.3257
sg7
F-0.1858
sg8
F-0.8017
sg9
F-0.091
sg10
I00
sg11
F-0.5008
sg12
F-0.4848
sg13
F-0.2398
sg14
F-0.0116
sg15
F-0.9703
sg16
F-0.2597
sg17
F-0.1462
sg18
S'jeffrey.sherrick@enron.com'
p289
sg20
F-0.0574
sg21
F-0.11
sg22
F-0.1291
sg23
F-0.0873
sg24
F-0.2382
sg25
F-0.2654
sg26
F-0.3116
ssS'PRENTICE JAMES'
p290
(dp291
g3
F-0.5658
sg4
F0.4413
sg5
F-0.5603
sg6
F0.3257
sg7
F-0.3041
sg8
F-0.8017
sg9
F-0.3146
sg10
I00
sg11
F-0.5008
sg12
F-0.6068
sg13
F-0.3368
sg14
F-0.5331
sg15
F-0.9703
sg16
F-0.1965
sg17
F-0.258
sg18
S'james.prentice@enron.com'
p292
sg20
F-0.0574
sg21
F-0.3819
sg22
F-0.6679
sg23
F-0.0873
sg24
F-0.2553
sg25
F-0.2654
sg26
F-0.3116
ssS'GRAY RODNEY'
p293
(dp294
g3
F-0.5658
sg4
F-0.1772
sg5
F-0.5603
sg6
F0.3257
sg7
F-0.4797
sg8
F-0.8017
sg9
F-0.3146
sg10
I00
sg11
F0.0275
sg12
F-0.551
sg13
F-0.4395
sg14
F-0.5331
sg15
F-0.9366
sg16
F-0.1314
sg17
F-0.4413
sg18
g29
sg20
F-0.0574
sg21
F-0.4322
sg22
F-0.6679
sg23
F-0.0873
sg24
F-0.2553
sg25
F0.3306
sg26
F-0.3116
ssS'PICKERING MARK R'
p295
(dp296
g3
F-0.167
sg4
F-0.3001
sg5
F-0.3186
sg6
F0.3257
sg7
F-0.4751
sg8
F-0.1043
sg9
F-0.3146
sg10
I00
sg11
F-0.5008
sg12
F-0.0956
sg13
F-0.4395
sg14
F-0.4395
sg15
F2.3618
sg16
F-0.1045
sg17
F-0.4354
sg18
S'mark.pickering@enron.com'
p297
sg20
F-0.0574
sg21
F0.0376
sg22
F0.0049
sg23
F-0.0291
sg24
F-0.2096
sg25
F-0.2654
sg26
F-0.3116
ssS'NOLES JAMES L'
p298
(dp299
g3
F-0.5658
sg4
F0.7173
sg5
F-0.5603
sg6
F0.3257
sg7
F-0.4206
sg8
F-0.8017
sg9
F-0.3146
sg10
I00
sg11
F-0.5008
sg12
F-0.6109
sg13
F-0.2116
sg14
F-0.5331
sg15
F-0.9703
sg16
F-0.173
sg17
F-0.4413
sg18
g29
sg20
F-0.1293
sg21
F-0.3525
sg22
F-0.6679
sg23
F-0.0873
sg24
F-0.2553
sg25
F-0.2654
sg26
F-0.3116
ssS'KEAN STEVEN J'
p300
(dp301
g3
F5.099
sg4
F-0.3001
sg5
F0.2455
sg6
F0.3257
sg7
F0.5071
sg8
F0.1226
sg9
F4.4918
sg10
I00
sg11
F-0.0673
sg12
F1.4584
sg13
F1.5931
sg14
F1.3392
sg15
F1.0865
sg16
F-0.0641
sg17
F-0.023
sg18
S'steven.kean@enron.com'
p302
sg20
F-0.0574
sg21
F3.5283
sg22
F2.6951
sg23
F-0.0873
sg24
F4.3589
sg25
F-0.2643
sg26
F-0.3116
ssS'FOWLER PEGGY'
p303
(dp304
g3
F-0.3362
sg4
F-0.3001
sg5
F-0.5603
sg6
F0.3257
sg7
F-0.1774
sg8
F-0.8017
sg9
F-0.3146
sg10
I00
sg11
F-0.5008
sg12
F-0.5839
sg13
F-0.1639
sg14
F-0.5331
sg15
F-0.9703
sg16
F-0.2597
sg17
F-0.1673
sg18
S'kulvinder.fowler@enron.com'
p305
sg20
F-0.0574
sg21
F-0.3769
sg22
F-0.6586
sg23
F-0.0873
sg24
F-0.2307
sg25
F-0.2654
sg26
F-0.3116
ssS'WASAFF GEORGE'
p306
(dp307
g3
F-0.3882
sg4
F0.792
sg5
F-0.2984
sg6
F-0.6281
sg7
F-0.1499
sg8
F-0.8017
sg9
F-0.2276
sg10
I00
sg11
F-0.2118
sg12
F-0.1862
sg13
F-0.2485
sg14
F-0.2389
sg15
F0.3523
sg16
F-0.1439
sg17
F-0.0962
sg18
S'george.wasaff@enron.com'
p308
sg20
F-0.0574
sg21
F-0.1893
sg22
F-0.3564
sg23
F-0.0873
sg24
F-0.2348
sg25
F-0.2642
sg26
F-0.3116
ssS'WHITE JR THOMAS E'
p309
(dp310
g3
F-0.5658
sg4
F-0.3001
sg5
F-0.1977
sg6
F0.3257
sg7
F1.9489
sg8
F0.9907
sg9
F-0.3146
sg10
I00
sg11
F-0.5008
sg12
F0.8497
sg13
F6.3729
sg14
F-0.5331
sg15
F0.645
sg16
F-0.0432
sg17
F-0.173
sg18
S'thomas.white@enron.com'
p311
sg20
F-0.0574
sg21
F-1.3536
sg22
F-0.6679
sg23
F-0.0873
sg24
F-0.2553
sg25
F0.6849
sg26
F-0.3116
ssS'CHRISTODOULOU DIOMEDES'
p312
(dp313
g3
F-0.5658
sg4
F-0.3001
sg5
F-0.5603
sg6
F0.3257
sg7
F0.495
sg8
F-0.8017
sg9
F-0.3146
sg10
I00
sg11
F-0.5008
sg12
F-0.4147
sg13
F0.0282
sg14
F-0.5331
sg15
F-0.9703
sg16
F-0.2597
sg17
F0.6193
sg18
S'diomedes.christodoulou@enron.com'
p314
sg20
F-0.0574
sg21
F-0.6408
sg22
F-0.6679
sg23
F-0.0873
sg24
F-0.2553
sg25
F-0.2654
sg26
F-0.3116
ssS'ALLEN PHILLIP K'
p315
(dp316
g3
F0.7231
sg4
F3.47
sg5
F2.8042
sg6
F-4.7122
sg7
F-0.2023
sg8
F-0.4961
sg9
F0.4927
sg10
I00
sg11
F-0.0604
sg12
F0.8674
sg13
F-0.3775
sg14
F0.0954
sg15
F0.057
sg16
F0.2423
sg17
F-0.0835
sg18
S'phillip.allen@enron.com'
p317
sg20
F-0.1532
sg21
F1.0897
sg22
F0.6324
sg23
F-0.0873
sg24
F1.2432
sg25
F-0.2653
sg26
F-0.3116
ssS'SHARP VICTORIA T'
p318
(dp319
g3
F0.8271
sg4
F-0.0538
sg5
F-0.0768
sg6
F0.3257
sg7
F-0.4004
sg8
F1.7615
sg9
F-0.2401
sg10
I00
sg11
F0.1092
sg12
F0.1151
sg13
F-0.3347
sg14
F-0.2122
sg15
F0.292
sg16
F-0.0832
sg17
F-0.3832
sg18
S'vicki.sharp@enron.com'
p320
sg20
F-0.0574
sg21
F0.6909
sg22
F1.6212
sg23
F-0.0873
sg24
F-0.1625
sg25
F-0.2633
sg26
F-0.3116
ssS'JAEDICKE ROBERT'
p321
(dp322
g3
F-0.5658
sg4
F-0.3001
sg5
F-0.5603
sg6
F0.2849
sg7
F-0.4104
sg8
F-0.8017
sg9
F-0.3146
sg10
I00
sg11
F-0.5008
sg12
F-0.8178
sg13
F-0.4178
sg14
F-0.5331
sg15
F-0.9703
sg16
F-0.2503
sg17
F-0.352
sg18
g29
sg20
F-0.0909
sg21
F-0.5297
sg22
F-0.6679
sg23
F-0.0873
sg24
F-0.2553
sg25
F-0.2654
sg26
F3.2877
ssS'WINOKUR JR. HERBERT S'
p323
(dp324
g3
F-0.5658
sg4
F-0.3001
sg5
F-0.5603
sg6
F0.2849
sg7
F-0.4797
sg8
F-0.7705
sg9
F-0.3146
sg10
I00
sg11
F-0.5008
sg12
F-0.8371
sg13
F-0.4395
sg14
F-0.5331
sg15
F-0.9703
sg16
F-0.2502
sg17
F-0.4413
sg18
g29
sg20
F-0.0574
sg21
F-0.5058
sg22
F-0.6679
sg23
F-0.0873
sg24
F-0.2553
sg25
F-0.2654
sg26
F3.2821
ssS'BROWN MICHAEL'
p325
(dp326
g3
F0.0942
sg4
F-0.3001
sg5
F-0.5603
sg6
F0.3257
sg7
F-0.4797
sg8
F0.2843
sg9
F-0.3022
sg10
I00
sg11
F-0.5008
sg12
F-0.5157
sg13
F-0.4395
sg14
F-0.3593
sg15
F-0.9703
sg16
F-0.2542
sg17
F-0.4413
sg18
S'michael.brown@enron.com'
p327
sg20
F-0.0574
sg21
F0.056
sg22
F0.0354
sg23
F-0.0873
sg24
F-0.2273
sg25
F-0.2654
sg26
F-0.3116
ssS'BADUM JAMES P'
p328
(dp329
g3
F-0.5658
sg4
F-0.065
sg5
F-0.5603
sg6
F0.3257
sg7
F-0.4383
sg8
F-0.7248
sg9
F-0.3146
sg10
I00
sg11
F-0.5008
sg12
F-0.6735
sg13
F-0.4395
sg14
F-0.5331
sg15
F-0.9703
sg16
F-0.2393
sg17
F-0.388
sg18
g29
sg20
F-0.0574
sg21
F-0.3373
sg22
F-0.6679
sg23
F-0.0873
sg24
F-0.2553
sg25
F-0.2654
sg26
F-0.3116
ssS'HUGHES JAMES A'
p330
(dp331
g3
F-0.2465
sg4
F-0.3001
sg5
F-0.5603
sg6
F0.3257
sg7
F-0.3003
sg8
F-0.8017
sg9
F-0.2525
sg10
I00
sg11
F-0.5008
sg12
F-0.5242
sg13
F-0.2607
sg14
F-0.0651
sg15
F-0.9703
sg16
F-0.2597
sg17
F-0.2851
sg18
S'james.hughes@enron.com'
p332
sg20
F-0.0574
sg21
F-0.1071
sg22
F-0.1235
sg23
F-0.0873
sg24
F-0.2321
sg25
F-0.2654
sg26
F-0.3116
ssS'REYNOLDS LAWRENCE'
p333
(dp334
g3
F-0.5658
sg4
F-0.2326
sg5
F-0.4797
sg6
F-0.0013
sg7
F0.1974
sg8
F-0.6164
sg9
F-0.3146
sg10
I00
sg11
F-0.275
sg12
F-0.3746
sg13
F-0.3404
sg14
F-0.5331
sg15
F-0.5816
sg16
F-0.2156
sg17
F0.4194
sg18
g29
sg20
F-0.164
sg21
F-0.5372
sg22
F-0.6679
sg23
F-0.0873
sg24
F-0.2553
sg25
F-0.0885
sg26
F-0.3116
ssS'DIMICHELE RICHARD G'
p335
(dp336
g3
F-0.5658
sg4
F-0.3001
sg5
F0.2455
sg6
F0.3257
sg7
F0.8542
sg8
F-0.0126
sg9
F-0.3146
sg10
I00
sg11
F0.5032
sg12
F0.1295
sg13
F-0.3775
sg14
F-0.5331
sg15
F0.3665
sg16
F0.0054
sg17
F1.2532
sg18
S'richard.dimichele@enron.com'
p337
sg20
F-0.0574
sg21
F-0.6756
sg22
F-0.6679
sg23
F-0.0873
sg24
F-0.2553
sg25
F0.0626
sg26
F-0.3116
ssS'BHATNAGAR SANJAY'
p338
(dp339
g3
F-0.3335
sg4
F-0.3001
sg5
F-0.5603
sg6
F0.3257
sg7
F-0.4797
sg8
F-0.8017
sg9
F-0.3022
sg10
I00
sg11
F-0.5008
sg12
F-0.8012
sg13
F-1.7209
sg14
F-0.5331
sg15
F-0.9703
sg16
F1.4705
sg17
F0.0974
sg18
S'sanjay.bhatnagar@enron.com'
p340
sg20
F11.6893
sg21
F-0.8047
sg22
F-0.24
sg23
F-0.0873
sg24
F-0.2355
sg25
F-0.1447
sg26
F4.2513
ssS'CARTER REBECCA C'
p341
(dp342
g3
F-0.4273
sg4
F-0.3001
sg5
F-0.3186
sg6
F0.0645
sg7
F-0.4797
sg8
F-0.8017
sg9
F-0.2276
sg10
I00
sg11
F-0.3924
sg12
F-0.3901
sg13
F-0.2883
sg14
F-0.1453
sg15
F0.3615
sg16
F-0.2063
sg17
F-0.4413
sg18
S'rebecca.carter@enron.com'
p343
sg20
F-0.2909
sg21
F-0.1319
sg22
F-0.4867
sg23
F-0.0873
sg24
F-0.2451
sg25
F-0.2649
sg26
F-0.3116
ssS'BUCHANAN HAROLD G'
p344
(dp345
g3
F-0.0826
sg4
F-0.3001
sg5
F-0.1574
sg6
F0.3257
sg7
F-0.317
sg8
F-0.7884
sg9
F-0.3146
sg10
I00
sg11
F-0.0604
sg12
F-0.3431
sg13
F-0.3465
sg14
F-0.5331
sg15
F0.2913
sg16
F-0.1417
sg17
F-0.2706
sg18
S'john.buchanan@enron.com'
p346
sg20
F-0.0574
sg21
F-0.214
sg22
F-0.6466
sg23
F-0.0873
sg24
F-0.17
sg25
F-0.2643
sg26
F-0.3116
ssS'YEAP SOON'
p347
(dp348
g3
F-0.5658
sg4
F-0.3001
sg5
F-0.5603
sg6
F0.3257
sg7
F-0.4488
sg8
F0.4122
sg9
F-0.3146
sg10
I00
sg11
F-0.5008
sg12
F-0.6352
sg13
F-0.4395
sg14
F-0.5331
sg15
F-0.9703
sg16
F-0.2536
sg17
F-0.4014
sg18
g29
sg20
F-0.0574
sg21
F-0.2754
sg22
F-0.6679
sg23
F-0.0873
sg24
F-0.2553
sg25
F-0.2654
sg26
F-0.3116
ssS'MURRAY JULIA H'
p349
(dp350
g3
F0.4078
sg4
F-0.3001
sg5
F-0.238
sg6
F0.3257
sg7
F-0.3839
sg8
F0.4669
sg9
F-0.2897
sg10
I00
sg11
F-0.3202
sg12
F-0.2702
sg13
F-0.3426
sg14
F-0.386
sg15
F0.196
sg16
F-0.1688
sg17
F-0.3585
sg18
S'julia.murray@enron.com'
p351
sg20
F-0.0574
sg21
F0.0746
sg22
F-0.3028
sg23
F-0.0873
sg24
F-0.2246
sg25
F-0.2651
sg26
F-0.3116
ssS'GARLAND C KEVIN'
p352
(dp353
g3
F-0.473
sg4
F-0.3001
sg5
F0.1247
sg6
F0.3257
sg7
F-0.336
sg8
F0.2648
sg9
F0.0208
sg10
I00
sg11
F0.0415
sg12
F-0.2393
sg13
F-0.3116
sg14
F-0.3994
sg15
F0.2096
sg16
F-0.0844
sg17
F-0.3097
sg18
S'kevin.garland@enron.com'
p354
sg20
F-0.0574
sg21
F-0.1155
sg22
F-0.5034
sg23
F-0.0873
sg24
F-0.2253
sg25
F-0.2122
sg26
F-0.3116
ssS'DODSON KEITH'
p355
(dp356
g3
F-0.4877
sg4
F-0.3001
sg5
F-0.5039
sg6
F0.3257
sg7
F-0.4797
sg8
F-0.1811
sg9
F-0.2773
sg10
I00
sg11
F-0.5008
sg12
F-0.4922
sg13
F-0.4395
sg14
F-0.3994
sg15
F0.1539
sg16
F-0.2239
sg17
F-0.4413
sg18
S'keith.dodson@enron.com'
p357
sg20
F-0.0574
sg21
F-0.1949
sg22
F-0.5625
sg23
F-0.0873
sg24
F-0.2457
sg25
F-0.2647
sg26
F-0.3116
ssS'YEAGER F SCOTT'
p358
(dp359
g3
F-0.5658
sg4
F-0.3001
sg5
F-0.5603
sg6
F0.3257
sg7
F1.4262
sg8
F0.3869
sg9
F-0.3146
sg10
I01
sg11
F-0.5008
sg12
F0.0899
sg13
F1.3199
sg14
F-0.5331
sg15
F-0.1645
sg16
F-0.2194
sg17
F1.2774
sg18
S'scott.yeager@enron.com'
p360
sg20
F-0.0574
sg21
F-0.9142
sg22
F-0.6679
sg23
F-0.0873
sg24
F-0.2553
sg25
F-0.1359
sg26
F-0.3116
ssS'HIRKO JOSEPH'
p361
(dp362
g3
F-0.5658
sg4
F-0.2866
sg5
F-0.5603
sg6
F0.3257
sg7
F4.4541
sg8
F0.9163
sg9
F-0.3146
sg10
I01
sg11
F-0.5008
sg12
F0.6776
sg13
F-0.4395
sg14
F-0.5331
sg15
F-0.9703
sg16
F-0.2495
sg17
F5.9229
sg18
S'joe.hirko@enron.com'
p363
sg20
F-0.0574
sg21
F-1.6922
sg22
F-0.6679
sg23
F-0.0873
sg24
F-0.2553
sg25
F-0.2629
sg26
F-0.3116
ssS'DIETRICH JANET R'
p364
(dp365
g3
F0.5765
sg4
F-0.3001
sg5
F-0.0768
sg6
F0.3257
sg7
F-0.1806
sg8
F-0.7251
sg9
F-0.1407
sg10
I00
sg11
F0.3032
sg12
F0.3072
sg13
F-0.2845
sg14
F3.5458
sg15
F0.3019
sg16
F-0.1018
sg17
F-0.1207
sg18
S'janet.dietrich@enron.com'
p366
sg20
F-0.0574
sg21
F1.0223
sg22
F1.0898
sg23
F-0.0873
sg24
F-0.2123
sg25
F-0.265
sg26
F-0.3116
ssS'DERRICK JR. JAMES V'
p367
(dp368
g3
F0.4029
sg4
F-0.3001
sg5
F0.0844
sg6
F-1.7738
sg7
F0.9366
sg8
F0.3247
sg9
F-0.0662
sg10
I00
sg11
F0.1985
sg12
F0.7245
sg13
F0.4398
sg14
F0.3228
sg15
F1.5343
sg16
F-0.198
sg17
F1.3856
sg18
S'james.derrick@enron.com'
p369
sg20
F-1.4158
sg21
F0.1739
sg22
F0.6269
sg23
F-0.0873
sg24
F0.3653
sg25
F-0.2589
sg26
F-0.3116
ssS'FREVERT MARK A'
p370
(dp371
g3
F0.8888
sg4
F8.1433
sg5
F1.0514
sg6
F-5.1798
sg7
F1.8652
sg8
F1.1148
sg9
F-0.2401
sg10
I00
sg11
F1.8356
sg12
F3.6296
sg13
F1.6212
sg14
F2.7033
sg15
F4.4264
sg16
F1.6715
sg17
F1.7169
sg18
S'mark.frevert@enron.com'
p372
sg20
F-0.0574
sg21
F-0.1651
sg22
F2.0851
sg23
F0.204
sg24
F-0.241
sg25
F6.2371
sg26
F-0.3116
ssS'PAI LOU L'
p373
(dp374
g3
F-0.5658
sg4
F-0.3001
sg5
F0.2455
sg6
F0.3257
sg7
F3.3398
sg8
F-0.0956
sg9
F-0.3146
sg10
I00
sg11
F-0.5008
sg12
F1.106
sg13
F3.7195
sg14
F-0.5331
sg15
F0.3618
sg16
F0.0899
sg17
F2.7369
sg18
S'lou.pai@enron.com'
p375
sg20
F-0.0574
sg21
F-1.7593
sg22
F-0.6679
sg23
F-0.0873
sg24
F-0.2553
sg25
F1.3362
sg26
F-0.3116
ssS'BAY FRANKLIN R'
p376
(dp377
g3
F-0.5658
sg4
F0.0421
sg5
F-0.238
sg6
F-0.004
sg7
F-0.4696
sg8
F2.0436
sg9
F-0.3146
sg10
I00
sg11
F-0.5008
sg12
F-0.3206
sg13
F-0.3678
sg14
F-0.5331
sg15
F0.2489
sg16
F-0.1671
sg17
F-0.4413
sg18
S'frank.bay@enron.com'
p378
sg20
F-0.1203
sg21
F-0.1251
sg22
F-0.6679
sg23
F-0.0873
sg24
F-0.2553
sg25
F-0.2653
sg26
F-0.3116
ssS'HAYSLETT RODERICK J'
p379
(dp380
g3
F0.6108
sg4
F-0.3001
sg5
F-0.5603
sg6
F0.3257
sg7
F-0.4241
sg8
F-0.8017
sg9
F0.1574
sg10
I00
sg11
F-0.5008
sg12
F-0.4483
sg13
F-0.269
sg14
F-0.0651
sg15
F-0.9703
sg16
F-0.2597
sg17
F-0.4413
sg18
S'rod.hayslett@enron.com'
p381
sg20
F-0.0574
sg21
F0.3237
sg22
F-0.1402
sg23
F-0.0873
sg24
F0.469
sg25
F-0.2654
sg26
F-0.3116
ssS'FUGH JOHN L'
p382
(dp383
g3
F-0.5658
sg4
F-0.2336
sg5
F-0.5603
sg6
F0.3257
sg7
F-0.4514
sg8
F-0.8017
sg9
F-0.3146
sg10
I00
sg11
F-0.5008
sg12
F-0.69
sg13
F-0.4395
sg14
F-0.5331
sg15
F-0.9703
sg16
F-0.2541
sg17
F-0.4048
sg18
g29
sg20
F-0.0574
sg21
F-0.3389
sg22
F-0.6679
sg23
F-0.0873
sg24
F-0.2553
sg25
F-0.2654
sg26
F-0.3116
ssS'FALLON JAMES B'
p384
(dp385
g3
F0.2137
sg4
F-0.3001
sg5
F1.4543
sg6
F0.3257
sg7
F-0.1057
sg8
F1.3117
sg9
F0.145
sg10
I00
sg11
F0.0401
sg12
F0.4025
sg13
F0.2454
sg14
F0.0286
sg15
F0.5791
sg16
F0.1518
sg17
F-0.2468
sg18
S'jim.fallon@enron.com'
p386
sg20
F-0.0574
sg21
F0.4395
sg22
F0.8145
sg23
F-0.0873
sg24
F-0.2041
sg25
F0.0861
sg26
F-0.3116
ssS'KOENIG MARK E'
p387
(dp388
g3
F0.4886
sg4
F-0.3001
sg5
F0.0038
sg6
F0.3257
sg7
F-0.1718
sg8
F1.9968
sg9
F-0.1283
sg10
I01
sg11
F-0.0673
sg12
F0.2461
sg13
F0.1746
sg14
F0.1757
sg15
F0.6064
sg16
F-0.082
sg17
F-0.3024
sg18
S'mark.koenig@enron.com'
p389
sg20
F-0.0574
sg21
F0.5829
sg22
F1.4309
sg23
F-0.0873
sg24
F-0.2137
sg25
F-0.1337
sg26
F-0.3116
ssS'SAVAGE FRANK'
p390
(dp391
g3
F-0.5658
sg4
F-0.3001
sg5
F-0.5603
sg6
F0.1274
sg7
F-0.4797
sg8
F-0.8017
sg9
F-0.3146
sg10
I00
sg11
F-0.5008
sg12
F-0.8521
sg13
F-0.4395
sg14
F-0.5331
sg15
F-0.9703
sg16
F-0.2593
sg17
F-0.4413
sg18
g29
sg20
F-0.0574
sg21
F-0.531
sg22
F-0.6679
sg23
F-0.0873
sg24
F-0.2553
sg25
F-0.2654
sg26
F3.8267
ssS'IZZO LAWRENCE L'
p392
(dp393
g3
F-0.3455
sg4
F-0.3001
sg5
F-0.5603
sg6
F0.3257
sg7
F0.4536
sg8
F-0.1827
sg9
F-0.2525
sg10
I00
sg11
F-0.0492
sg12
F0.0685
sg13
F1.3586
sg14
F-0.1587
sg15
F-0.5365
sg16
F-0.0381
sg17
F0.0066
sg18
S'larry.izzo@enron.com'
p394
sg20
F-0.0574
sg21
F-0.6437
sg22
F-0.264
sg23
F-0.0873
sg24
F-0.2423
sg25
F1.0948
sg26
F-0.3116
ssS'TILNEY ELIZABETH A'
p395
(dp396
g3
F-0.3615
sg4
F-0.3001
sg5
F-0.3186
sg6
F-0.6145
sg7
F-0.2924
sg8
F-0.8017
sg9
F-0.178
sg10
I00
sg11
F-0.1034
sg12
F-0.2656
sg13
F-0.1557
sg14
F-0.3994
sg15
F0.2879
sg16
F-0.215
sg17
F-0.319
sg18
S'elizabeth.tilney@enron.com'
p397
sg20
F-0.0574
sg21
F-0.1926
sg22
F-0.3176
sg23
F-0.0873
sg24
F-0.2423
sg25
F-0.1323
sg26
F-0.3116
ssS'MARTIN AMANDA K'
p398
(dp399
g3
F0.1102
sg4
F-0.1879
sg5
F-0.5603
sg6
F0.3257
sg7
F-0.1477
sg8
F-0.6207
sg9
F-0.3146
sg10
I00
sg11
F6.9338
sg12
F0.8885
sg13
F-0.4395
sg14
F-0.4261
sg15
F0.8075
sg16
F0.6814
sg17
F-0.0131
sg18
S'a..martin@enron.com'
p400
sg20
F-0.0574
sg21
F-0.6933
sg22
F-0.227
sg23
F-0.0873
sg24
F-0.0983
sg25
F2.202
sg26
F-0.3116
ssS'BUY RICHARD B'
p401
(dp402
g3
F0.9989
sg4
F0.5533
sg5
F0.165
sg6
F-0.8104
sg7
F0.0727
sg8
F-0.8017
sg9
F0.5672
sg10
I00
sg11
F0.6116
sg12
F0.6236
sg13
F0.0041
sg14
F1.5532
sg15
F0.7111
sg16
F0.004
sg17
F0.0847
sg18
S'rick.buy@enron.com'
p403
sg20
F-0.0574
sg21
F1.0042
sg22
F1.4882
sg23
F-0.0873
sg24
F0.4636
sg25
F0.0853
sg26
F-0.3116
ssS'CAUSEY RICHARD A'
p404
(dp405
g3
F0.2745
sg4
F-0.3001
sg5
F0.2455
sg6
F-0.0585
sg7
F-0.0784
sg8
F-0.1258
sg9
F-0.1655
sg10
I01
sg11
F0.0049
sg12
F0.2841
sg13
F0.7914
sg14
F0.2425
sg15
F1.1417
sg16
F-0.0505
sg17
F-0.4413
sg18
S'richard.causey@enron.com'
p406
sg20
F-0.0574
sg21
F0.2536
sg22
F0.7969
sg23
F-0.0873
sg24
F-0.2219
sg25
F0.0041
sg26
F-0.3116
ssS'TAYLOR MITCHELL S'
p407
(dp408
g3
F-0.3291
sg4
F-0.0013
sg5
F-0.0768
sg6
F0.3257
sg7
F0.1209
sg8
F-0.8017
sg9
F-0.3146
sg10
I00
sg11
F-0.5008
sg12
F-0.2241
sg13
F-0.1621
sg14
F-0.5331
sg15
F0.3788
sg16
F-0.1374
sg17
F0.2168
sg18
S'mitchell.taylor@enron.com'
p409
sg20
F-0.0574
sg21
F-0.3401
sg22
F-0.3906
sg23
F-0.0873
sg24
F-0.2355
sg25
F-0.2654
sg26
F-0.3116
ssS'DONAHUE JR JEFFREY M'
p410
(dp411
g3
F-0.1816
sg4
F-0.3001
sg5
F0.0844
sg6
F-0.1648
sg7
F-0.3063
sg8
F1.3193
sg9
F-0.178
sg10
I00
sg11
F-0.5008
sg12
F0.0598
sg13
F-0.2845
sg14
F1.9811
sg15
F0.4469
sg16
F-0.1617
sg17
F-0.2829
sg18
S'jeff.donahue@enron.com'
p412
sg20
F-0.0574
sg21
F0.5391
sg22
F0.0456
sg23
F-0.0873
sg24
F-0.2403
sg25
F-0.2646
sg26
F-0.3116
ssS'GLISAN JR BEN F'
p413
(dp414
g3
F-0.1781
sg4
F-0.3001
sg5
F-0.0768
sg6
F0.3257
sg7
F-0.3548
sg8
F1.9739
sg9
F-0.2401
sg10
I01
sg11
F-0.3982
sg12
F-0.076
sg13
F-0.2458
sg14
F0.1623
sg15
F0.4285
sg16
F-0.1173
sg17
F-0.3617
sg18
S'ben.glisan@enron.com'
p415
sg20
F-0.0574
sg21
F0.2071
sg22
F0.1398
sg23
F-0.0873
sg24
F-0.2444
sg25
F-0.09
sg26
F-0.3116
ss.