(dp0
S'METTS MARK'
p1
(dp2
S'to_messages'
p3
I807
sS'financial_info'
p4
F3293778.0
sS'deferral_payments'
p5
S'NaN'
p6
sS'bonus'
p7
I600000
sS'log_communicating_info'
p8
F7.363913501405819
sS'total_stock_value'
p9
I585062
sS'expenses'
p10
I94299
sS'from_poi_to_this_person'
p11
I38
sS'log_financial_info'
p12
F15.007546095787129
sS'from_this_person_to_poi'
p13
I1
sS'poi'
p14
I00
sS'deferred_income'
p15
g6
sS'restricted_stock'
p16
I585062
sS'long_term_incentive'
p17
g6
sS'salary'
p18
I365788
sS'total_payments'
p19
I1061827
sS'loan_advances'
p20
g6
sS'email_address'
p21
S'mark.metts@enron.com'
p22
sS'restricted_stock_deferred'
p23
g6
sS'shared_receipt_with_poi'
p24
I702
sS'exercised_stock_options'
p25
g6
sS'from_messages'
p26
I29
sS'other'
p27
I1740
sS'director_fees'
p28
g6
sS'communicating_info'
p29
F1577.0
ssS'BAXTER JOHN C'
p30
(dp31
g3
g6
sg4
F32515202.0
sg5
I1295738
sg7
I1200000
sg8
F0.0
sg9
I10623258
sg10
I11200
sg11
g6
sg12
F17.297218322538235
sg13
g6
sg14
I00
sg15
I-1386055
sg16
I3942714
sg17
I1586055
sg18
I267102
sg19
I5634343
sg20
g6
sg21
g6
sg23
g6
sg24
g6
sg25
I6680544
sg26
g6
sg27
I2660303
sg28
g6
sg29
I0
ssS'ELLIOTT STEVEN'
p32
(dp33
g3
g6
sg4
F13780920.0
sg5
g6
sg7
I350000
sg8
F0.0
sg9
I6678735
sg10
I78552
sg11
g6
sg12
F16.438795657310557
sg13
g6
sg14
I00
sg15
I-400729
sg16
I1788391
sg17
g6
sg18
I170941
sg19
I211725
sg20
g6
sg21
S'steven.elliott@enron.com'
p34
sg23
g6
sg24
g6
sg25
I4890344
sg26
g6
sg27
I12961
sg28
g6
sg29
I0
ssS'CORDES WILLIAM R'
p35
(dp36
g3
I764
sg4
F2076370.0
sg5
g6
sg7
g6
sg8
F6.739336627357174
sg9
I1038185
sg10
g6
sg11
I10
sg12
F14.546132216357233
sg13
I0
sg14
I00
sg15
g6
sg16
I386335
sg17
g6
sg18
g6
sg19
g6
sg20
g6
sg21
S'bill.cordes@enron.com'
p37
sg23
g6
sg24
I58
sg25
I651850
sg26
I12
sg27
g6
sg28
g6
sg29
F844.0
ssS'HANNON KEVIN P'
p38
(dp39
g3
I1045
sg4
F13359494.0
sg5
g6
sg7
I1500000
sg8
F7.680637427560936
sg9
I6391065
sg10
I34039
sg11
I32
sg12
F16.40773792595716
sg13
I21
sg14
I01
sg15
I-3117011
sg16
I853064
sg17
I1617011
sg18
I243293
sg19
I288682
sg20
g6
sg21
S'kevin.hannon@enron.com'
p40
sg23
g6
sg24
I1035
sg25
I5538001
sg26
I32
sg27
I11350
sg28
g6
sg29
F2165.0
ssS'MORDAUNT KRISTINA M'
p41
(dp42
g3
g6
sg4
F1674064.0
sg5
g6
sg7
I325000
sg8
F0.0
sg9
I208510
sg10
I35018
sg11
g6
sg12
F14.330765358429458
sg13
g6
sg14
I00
sg15
g6
sg16
I208510
sg17
g6
sg18
I267093
sg19
I628522
sg20
g6
sg21
S'kristina.mordaunt@enron.com'
p43
sg23
g6
sg24
g6
sg25
g6
sg26
g6
sg27
I1411
sg28
g6
sg29
I0
ssS'MEYER ROCKFORD G'
p44
(dp45
g3
I232
sg4
F5608200.0
sg5
I1848227
sg7
g6
sg8
F5.645446897643238
sg9
I955873
sg10
g6
sg11
I0
sg12
F15.539740548709045
sg13
I0
sg14
I00
sg15
g6
sg16
I462384
sg17
g6
sg18
g6
sg19
I1848227
sg20
g6
sg21
S'rockford.meyer@enron.com'
p46
sg23
g6
sg24
I22
sg25
I493489
sg26
I28
sg27
g6
sg28
g6
sg29
F282.0
ssS'MCMAHON JEFFREY'
p47
(dp48
g3
I2355
sg4
F11525252.0
sg5
g6
sg7
I2600000
sg8
F8.458716261657262
sg9
I1662855
sg10
I137108
sg11
I58
sg12
F16.260051098883697
sg13
I26
sg14
I00
sg15
g6
sg16
I558801
sg17
I694862
sg18
I370448
sg19
I4099771
sg20
g6
sg21
S'jeffrey.mcmahon@enron.com'
p49
sg23
g6
sg24
I2228
sg25
I1104054
sg26
I48
sg27
I297353
sg28
g6
sg29
F4715.0
ssS'HAEDICKE MARK E'
p50
(dp51
g3
I4009
sg4
F9324318.0
sg5
I2157527
sg7
I1150000
sg8
F8.99205997632796
sg9
I803094
sg10
I76169
sg11
I180
sg12
F16.048136491336752
sg13
I61
sg14
I00
sg15
I-934484
sg16
I524169
sg17
I983346
sg18
I374125
sg19
I3859065
sg20
g6
sg21
S'mark.haedicke@enron.com'
p52
sg23
I-329825
sg24
I1847
sg25
I608750
sg26
I1941
sg27
I52382
sg28
g6
sg29
F8038.0
ssS'PIPER GREGORY F'
p53
(dp54
g3
I1238
sg4
F5235838.0
sg5
I1130036
sg7
I400000
sg8
F7.7458682297922685
sg9
I880290
sg10
I43057
sg11
I61
sg12
F15.471037656876076
sg13
I48
sg14
I00
sg15
I-33333
sg16
I409554
sg17
g6
sg18
I197091
sg19
I1737629
sg20
g6
sg21
S'greg.piper@enron.com'
p55
sg23
I-409554
sg24
I742
sg25
I880290
sg26
I222
sg27
I778
sg28
g6
sg29
F2311.0
ssS'HUMPHREY GENE E'
p56
(dp57
g3
I128
sg4
F10765984.0
sg5
I2964506
sg7
g6
sg8
F5.676753802268282
sg9
I2282768
sg10
I4994
sg11
I10
sg12
F16.191902184826944
sg13
I17
sg14
I00
sg15
g6
sg16
g6
sg17
g6
sg18
I130724
sg19
I3100224
sg20
g6
sg21
S'gene.humphrey@enron.com'
p58
sg23
g6
sg24
I119
sg25
I2282768
sg26
I17
sg27
g6
sg28
g6
sg29
F291.0
ssS'NOLES JAMES L'
p59
(dp60
g3
g6
sg4
F2286212.0
sg5
I774401
sg7
g6
sg8
F0.0
sg9
I368705
sg10
g6
sg11
g6
sg12
F14.642407294849312
sg13
g6
sg14
I00
sg15
g6
sg16
I463261
sg17
g6
sg18
g6
sg19
I774401
sg20
g6
sg21
g6
sg23
I-94556
sg24
g6
sg25
g6
sg26
g6
sg27
g6
sg28
g6
sg29
I0
ssS'BLACHMAN JEREMY M'
p61
(dp62
g3
I2475
sg4
F5938378.0
sg5
g6
sg7
I850000
sg8
F8.48528964240323
sg9
I954354
sg10
I84208
sg11
I25
sg12
F15.596946758473146
sg13
I2
sg14
I00
sg15
g6
sg16
I189041
sg17
I831809
sg18
I248546
sg19
I2014835
sg20
g6
sg21
S'jeremy.blachman@enron.com'
p63
sg23
g6
sg24
I2326
sg25
I765313
sg26
I14
sg27
I272
sg28
g6
sg29
F4842.0
ssS'SUNDE MARTIN'
p64
(dp65
g3
I2647
sg4
F4487958.0
sg5
g6
sg7
I700000
sg8
F8.575650760987806
sg9
I698920
sg10
g6
sg11
I37
sg12
F15.31690859067057
sg13
I13
sg14
I00
sg15
g6
sg16
I698920
sg17
I476451
sg18
I257486
sg19
I1545059
sg20
g6
sg21
S'marty.sunde@enron.com'
p66
sg23
g6
sg24
I2565
sg25
g6
sg26
I38
sg27
I111122
sg28
g6
sg29
F5300.0
ssS'GIBBS DANA R'
p67
(dp68
g3
I169
sg4
F6369594.0
sg5
I504610
sg7
g6
sg8
F5.3230099791384085
sg9
I2218275
sg10
g6
sg11
I0
sg12
F15.667046446249232
sg13
I0
sg14
I00
sg15
g6
sg16
g6
sg17
I461912
sg18
g6
sg19
I966522
sg20
g6
sg21
S'dana.gibbs@enron.com'
p69
sg23
g6
sg24
I23
sg25
I2218275
sg26
I12
sg27
g6
sg28
g6
sg29
F204.0
ssS'LOWRY CHARLES P'
p70
(dp71
g3
g6
sg4
F744410.0
sg5
g6
sg7
g6
sg8
F0.0
sg9
I372205
sg10
g6
sg11
g6
sg12
F13.520348580642667
sg13
g6
sg14
I00
sg15
g6
sg16
I153686
sg17
g6
sg18
g6
sg19
g6
sg20
g6
sg21
g6
sg23
I-153686
sg24
g6
sg25
I372205
sg26
g6
sg27
g6
sg28
g6
sg29
I0
ssS'COLWELL WESLEY'
p72
(dp73
g3
I1758
sg4
F4377172.0
sg5
I27610
sg7
I1200000
sg8
F8.065265208897733
sg9
I698242
sg10
I16514
sg11
I240
sg12
F15.291913640180617
sg13
I11
sg14
I01
sg15
I-144062
sg16
I698242
sg17
g6
sg18
I288542
sg19
I1490344
sg20
g6
sg21
S'wes.colwell@enron.com'
p74
sg23
g6
sg24
I1132
sg25
g6
sg26
I40
sg27
I101740
sg28
g6
sg29
F3181.0
ssS'MULLER MARK S'
p75
(dp76
g3
I136
sg4
F9237836.0
sg5
I842924
sg7
I1100000
sg8
F5.631211781821365
sg9
I1416848
sg10
g6
sg11
I12
sg12
F16.038818325305222
sg13
I0
sg14
I00
sg15
I-719000
sg16
I360528
sg17
I1725545
sg18
I251654
sg19
I3202070
sg20
g6
sg21
S's..muller@enron.com'
p77
sg23
g6
sg24
I114
sg25
I1056320
sg26
I16
sg27
I947
sg28
g6
sg29
F278.0
ssS'JACKSON CHARLENE R'
p78
(dp79
g3
I258
sg4
F2553818.0
sg5
g6
sg7
I250000
sg8
F6.16541785423142
sg9
I725735
sg10
I10181
sg11
I25
sg12
F14.753100443838534
sg13
I19
sg14
I00
sg15
g6
sg16
I540672
sg17
g6
sg18
I288558
sg19
I551174
sg20
g6
sg21
S'charlene.jackson@enron.com'
p80
sg23
g6
sg24
I117
sg25
I185063
sg26
I56
sg27
I2435
sg28
g6
sg29
F475.0
ssS'WESTFAHL RICHARD K'
p81
(dp82
g3
g6
sg4
F2294130.0
sg5
g6
sg7
g6
sg8
F0.0
sg9
I384930
sg10
I51870
sg11
g6
sg12
F14.645864680533586
sg13
g6
sg14
I00
sg15
I-10800
sg16
I384930
sg17
I256191
sg18
I63744
sg19
I762135
sg20
g6
sg21
S'dick.westfahl@enron.com'
p83
sg23
g6
sg24
g6
sg25
g6
sg26
g6
sg27
I401130
sg28
g6
sg29
I0
ssS'WALTERS GARETH W'
p84
(dp85
g3
g6
sg4
F2235478.0
sg5
I53625
sg7
g6
sg8
F0.0
sg9
I1030329
sg10
I33785
sg11
g6
sg12
F14.619966080740433
sg13
g6
sg14
I00
sg15
g6
sg16
g6
sg17
g6
sg18
g6
sg19
I87410
sg20
g6
sg21
g6
sg23
g6
sg24
g6
sg25
I1030329
sg26
g6
sg27
g6
sg28
g6
sg29
I0
ssS'WALLS JR ROBERT H'
p86
(dp87
g3
I671
sg4
F15395554.0
sg5
g6
sg7
I850000
sg8
F6.956545443151569
sg9
I5898997
sg10
I50936
sg11
I17
sg12
F16.54958938935673
sg13
I0
sg14
I00
sg15
g6
sg16
I1552453
sg17
I540751
sg18
I357091
sg19
I1798780
sg20
g6
sg21
S'rob.walls@enron.com'
p88
sg23
g6
sg24
I215
sg25
I4346544
sg26
I146
sg27
I2
sg28
g6
sg29
F1049.0
ssS'KITCHEN LOUISE'
p89
(dp90
g3
I8305
sg4
F8036568.0
sg5
g6
sg7
I3100000
sg8
F9.557328550325371
sg9
I547143
sg10
I5774
sg11
I251
sg12
F15.899512808781639
sg13
I194
sg14
I00
sg15
g6
sg16
I466101
sg17
g6
sg18
I271442
sg19
I3471141
sg20
g6
sg21
S'louise.kitchen@enron.com'
p91
sg23
g6
sg24
I3669
sg25
I81042
sg26
I1728
sg27
I93925
sg28
g6
sg29
F14147.0
ssS'CHAN RONNIE'
p92
(dp93
g3
g6
sg4
F0.0
sg5
g6
sg7
g6
sg8
F0.0
sg9
g6
sg10
g6
sg11
g6
sg12
F0.0
sg13
g6
sg14
I00
sg15
I-98784
sg16
I32460
sg17
g6
sg18
g6
sg19
g6
sg20
g6
sg21
g6
sg23
I-32460
sg24
g6
sg25
g6
sg26
g6
sg27
g6
sg28
I98784
sg29
I0
ssS'BELFER ROBERT'
p94
(dp95
g3
g6
sg4
F6570.0
sg5
I-102500
sg7
g6
sg8
F0.0
sg9
I-44093
sg10
g6
sg11
g6
sg12
F8.790421306897867
sg13
g6
sg14
I00
sg15
g6
sg16
g6
sg17
g6
sg18
g6
sg19
I102500
sg20
g6
sg21
g6
sg23
I44093
sg24
g6
sg25
I3285
sg26
g6
sg27
g6
sg28
I3285
sg29
I0
ssS'SHANKMAN JEFFREY A'
p96
(dp97
g3
I3221
sg4
F10221474.0
sg5
g6
sg7
I2000000
sg8
F8.963160242833732
sg9
I2072035
sg10
I178979
sg11
I94
sg12
F16.14000145717923
sg13
I83
sg14
I00
sg15
g6
sg16
I630137
sg17
I554422
sg18
I304110
sg19
I3038702
sg20
g6
sg21
S'jeffrey.shankman@enron.com'
p98
sg23
g6
sg24
I1730
sg25
I1441898
sg26
I2681
sg27
I1191
sg28
g6
sg29
F7809.0
ssS'WODRASKA JOHN'
p99
(dp100
g3
g6
sg4
F379166.0
sg5
g6
sg7
g6
sg8
F0.0
sg9
g6
sg10
g6
sg11
g6
sg12
F12.845732020259625
sg13
g6
sg14
I00
sg15
g6
sg16
g6
sg17
g6
sg18
g6
sg19
I189583
sg20
g6
sg21
S'john.wodraska@enron.com'
p101
sg23
g6
sg24
g6
sg25
g6
sg26
g6
sg27
I189583
sg28
g6
sg29
I0
ssS'BERGSIEKER RICHARD P'
p102
(dp103
g3
I383
sg4
F2556198.0
sg5
g6
sg7
I250000
sg8
F6.522092798170152
sg9
I659249
sg10
I59175
sg11
I4
sg12
F14.754031947473978
sg13
I0
sg14
I00
sg15
I-485813
sg16
I659249
sg17
I180250
sg18
I187922
sg19
I618850
sg20
g6
sg21
S'rick.bergsieker@enron.com'
p104
sg23
g6
sg24
I233
sg25
g6
sg26
I59
sg27
I427316
sg28
g6
sg29
F679.0
ssS'URQUHART JOHN A'
p105
(dp106
g3
g6
sg4
F457312.0
sg5
g6
sg7
g6
sg8
F0.0
sg9
g6
sg10
I228656
sg11
g6
sg12
F13.033123336970055
sg13
g6
sg14
I00
sg15
I-36666
sg16
g6
sg17
g6
sg18
g6
sg19
I228656
sg20
g6
sg21
g6
sg23
g6
sg24
g6
sg25
g6
sg26
g6
sg27
g6
sg28
I36666
sg29
I0
ssS'BIBI PHILIPPE A'
p107
(dp108
g3
I1607
sg4
F7782818.0
sg5
g6
sg7
I1000000
sg8
F8.011355109161286
sg9
I1843816
sg10
I38559
sg11
I23
sg12
F15.867429169857152
sg13
I8
sg14
I00
sg15
g6
sg16
I378082
sg17
I369721
sg18
I213625
sg19
I2047593
sg20
g6
sg21
S'philippe.bibi@enron.com'
p109
sg23
g6
sg24
I1336
sg25
I1465734
sg26
I40
sg27
I425688
sg28
g6
sg29
F3014.0
ssS'RIEKER PAULA H'
p110
(dp111
g3
I1328
sg4
F6035974.0
sg5
I214678
sg7
I700000
sg8
F7.920083199053234
sg9
I1918887
sg10
I33271
sg11
I35
sg12
F15.613247957045527
sg13
I48
sg14
I01
sg15
I-100000
sg16
I283649
sg17
g6
sg18
I249201
sg19
I1099100
sg20
g6
sg21
S'paula.rieker@enron.com'
p112
sg23
g6
sg24
I1258
sg25
I1635238
sg26
I82
sg27
I1950
sg28
g6
sg29
F2751.0
ssS'BECK SALLY W'
p113
(dp114
g3
I7315
sg4
F2190190.0
sg5
g6
sg7
I700000
sg8
F9.604272564270623
sg9
I126027
sg10
I37172
sg11
I144
sg12
F14.599499312601582
sg13
I386
sg14
I00
sg15
g6
sg16
I126027
sg17
g6
sg18
I231330
sg19
I969068
sg20
g6
sg21
S'sally.beck@enron.com'
p115
sg23
g6
sg24
I2639
sg25
g6
sg26
I4343
sg27
I566
sg28
g6
sg29
F14827.0
ssS'HAUG DAVID L'
p116
(dp117
g3
I573
sg4
F4435548.0
sg5
g6
sg7
g6
sg8
F6.980075940561763
sg9
I2217299
sg10
I475
sg11
I4
sg12
F15.305161954114315
sg13
I7
sg14
I00
sg15
g6
sg16
I2217299
sg17
g6
sg18
g6
sg19
I475
sg20
g6
sg21
S'david.haug@enron.com'
p118
sg23
g6
sg24
I471
sg25
g6
sg26
I19
sg27
g6
sg28
g6
sg29
F1074.0
ssS'ECHOLS JOHN B'
p119
(dp120
g3
g6
sg4
F7402530.0
sg5
g6
sg7
I200000
sg8
F0.0
sg9
I1008941
sg10
I21530
sg11
g6
sg12
F15.817332526723515
sg13
g6
sg14
I00
sg15
g6
sg16
I407503
sg17
I2234774
sg18
I182245
sg19
I2692324
sg20
g6
sg21
S'john.echols@enron.com'
p121
sg23
g6
sg24
g6
sg25
I601438
sg26
g6
sg27
I53775
sg28
g6
sg29
I0
ssS'MENDELSOHN JOHN'
p122
(dp123
g3
g6
sg4
F296.0
sg5
g6
sg7
g6
sg8
F0.0
sg9
g6
sg10
I148
sg11
g6
sg12
F5.6937321388027
sg13
g6
sg14
I00
sg15
I-103750
sg16
g6
sg17
g6
sg18
g6
sg19
I148
sg20
g6
sg21
g6
sg23
g6
sg24
g6
sg25
g6
sg26
g6
sg27
g6
sg28
I103750
sg29
I0
ssS'HICKERSON GARY J'
p124
(dp125
g3
I1320
sg4
F5045784.0
sg5
g6
sg7
I1700000
sg8
F7.735870319952567
sg9
I441096
sg10
I98849
sg11
I40
sg12
F15.434063799269051
sg13
I1
sg14
I00
sg15
g6
sg16
I441096
sg17
I69223
sg18
I211788
sg19
I2081796
sg20
g6
sg21
S'gary.hickerson@enron.com'
p126
sg23
g6
sg24
I900
sg25
g6
sg26
I27
sg27
I1936
sg28
g6
sg29
F2288.0
ssS'CLINE KENNETH W'
p127
(dp128
g3
g6
sg4
F379036.0
sg5
g6
sg7
g6
sg8
F0.0
sg9
I189518
sg10
g6
sg11
g6
sg12
F12.845389104629337
sg13
g6
sg14
I00
sg15
g6
sg16
I662086
sg17
g6
sg18
g6
sg19
g6
sg20
g6
sg21
g6
sg23
I-472568
sg24
g6
sg25
g6
sg26
g6
sg27
g6
sg28
g6
sg29
I0
ssS'LEWIS RICHARD'
p129
(dp130
g3
I952
sg4
F1700954.0
sg5
g6
sg7
g6
sg8
F7.454719949364001
sg9
I850477
sg10
g6
sg11
I10
sg12
F14.346700416001603
sg13
I0
sg14
I00
sg15
g6
sg16
g6
sg17
g6
sg18
g6
sg19
g6
sg20
g6
sg21
S'richard.lewis@enron.com'
p131
sg23
g6
sg24
I739
sg25
I850477
sg26
I26
sg27
g6
sg28
g6
sg29
F1727.0
ssS'HAYES ROBERT E'
p132
(dp133
g3
I504
sg4
F318758.0
sg5
I7961
sg7
g6
sg8
F6.368187186350492
sg9
I151418
sg10
g6
sg11
I16
sg12
F12.672190610350283
sg13
I0
sg14
I00
sg15
g6
sg16
I151418
sg17
g6
sg18
g6
sg19
I7961
sg20
g6
sg21
S'robert.hayes@enron.com'
p134
sg23
g6
sg24
I50
sg25
g6
sg26
I12
sg27
g6
sg28
g6
sg29
F582.0
ssS'KOPPER MICHAEL J'
p135
(dp136
g3
g6
sg4
F7275288.0
sg5
g6
sg7
I800000
sg8
F0.0
sg9
I985032
sg10
I118134
sg11
g6
sg12
F15.79999409531872
sg13
g6
sg14
I01
sg15
g6
sg16
I985032
sg17
I602671
sg18
I224305
sg19
I2652612
sg20
g6
sg21
S'michael.kopper@enron.com'
p137
sg23
g6
sg24
g6
sg25
g6
sg26
g6
sg27
I907502
sg28
g6
sg29
I0
ssS'LEFF DANIEL P'
p138
(dp139
g3
I2822
sg4
F6049512.0
sg5
g6
sg7
I1000000
sg8
F8.637462023807181
sg9
I360528
sg10
g6
sg11
I67
sg12
F15.61548833089929
sg13
I14
sg14
I00
sg15
g6
sg16
I360528
sg17
I1387399
sg18
I273746
sg19
I2664228
sg20
g6
sg21
S'dan.leff@enron.com'
p140
sg23
g6
sg24
I2672
sg25
g6
sg26
I63
sg27
I3083
sg28
g6
sg29
F5638.0
ssS'LAVORATO JOHN J'
p141
(dp142
g3
I7259
sg4
F31185802.0
sg5
g6
sg7
I8000000
sg8
F9.598727138549595
sg9
I5167144
sg10
I49537
sg11
I528
sg12
F17.25547351716993
sg13
I411
sg14
I00
sg15
g6
sg16
I1008149
sg17
I2035380
sg18
I339288
sg19
I10425757
sg20
g6
sg21
S'john.lavorato@enron.com'
p143
sg23
g6
sg24
I3962
sg25
I4158995
sg26
I2585
sg27
I1552
sg28
g6
sg29
F14745.0
ssS'BERBERIAN DAVID'
p144
(dp145
g3
g6
sg4
F5444180.0
sg5
g6
sg7
g6
sg8
F0.0
sg9
I2493616
sg10
I11892
sg11
g6
sg12
F15.510057889812854
sg13
g6
sg14
I00
sg15
g6
sg16
I869220
sg17
g6
sg18
I216582
sg19
I228474
sg20
g6
sg21
S'david.berberian@enron.com'
p146
sg23
g6
sg24
g6
sg25
I1624396
sg26
g6
sg27
g6
sg28
g6
sg29
I0
ssS'DETMERING TIMOTHY J'
p147
(dp148
g3
g6
sg4
F6464896.0
sg5
I875307
sg7
I425000
sg8
F0.0
sg9
I2027865
sg10
I52255
sg11
g6
sg12
F15.681897638119958
sg13
g6
sg14
I00
sg15
I-775241
sg16
I315068
sg17
I415657
sg18
I210500
sg19
I1204583
sg20
g6
sg21
S'timothy.detmering@enron.com'
p149
sg23
I-315068
sg24
g6
sg25
I2027865
sg26
g6
sg27
I1105
sg28
g6
sg29
I0
ssS'WAKEHAM JOHN'
p150
(dp151
g3
g6
sg4
F426142.0
sg5
g6
sg7
g6
sg8
F0.0
sg9
g6
sg10
I103773
sg11
g6
sg12
F12.962530249674503
sg13
g6
sg14
I00
sg15
g6
sg16
g6
sg17
g6
sg18
g6
sg19
I213071
sg20
g6
sg21
g6
sg23
g6
sg24
g6
sg25
g6
sg26
g6
sg27
g6
sg28
I109298
sg29
I0
ssS'POWERS WILLIAM'
p152
(dp153
g3
I653
sg4
F0.0
sg5
g6
sg7
g6
sg8
F6.539585955617669
sg9
g6
sg10
g6
sg11
I0
sg12
F0.0
sg13
I0
sg14
I00
sg15
I-17500
sg16
g6
sg17
g6
sg18
g6
sg19
g6
sg20
g6
sg21
S'ken.powers@enron.com'
p154
sg23
g6
sg24
I12
sg25
g6
sg26
I26
sg27
g6
sg28
I17500
sg29
F691.0
ssS'GOLD JOSEPH'
p155
(dp156
g3
g6
sg4
F6049168.0
sg5
g6
sg7
I750000
sg8
F0.0
sg9
I877611
sg10
g6
sg11
g6
sg12
F15.615431465201011
sg13
g6
sg14
I00
sg15
g6
sg16
I441096
sg17
I304805
sg18
I272880
sg19
I2146973
sg20
g6
sg21
S'joe.gold@enron.com'
p157
sg23
g6
sg24
g6
sg25
I436515
sg26
g6
sg27
I819288
sg28
g6
sg29
I0
ssS'BANNANTINE JAMES M'
p158
(dp159
g3
I566
sg4
F12319368.0
sg5
g6
sg7
g6
sg8
F7.003065458786462
sg9
I5243487
sg10
I56301
sg11
I39
sg12
F16.326683297225518
sg13
I0
sg14
I00
sg15
I-5104
sg16
I1757552
sg17
g6
sg18
I477
sg19
I916197
sg20
g6
sg21
S'james.bannantine@enron.com'
p160
sg23
I-560222
sg24
I465
sg25
I4046157
sg26
I29
sg27
I864523
sg28
g6
sg29
F1099.0
ssS'DUNCAN JOHN H'
p161
(dp162
g3
g6
sg4
F898484.0
sg5
g6
sg7
g6
sg8
F0.0
sg9
I371750
sg10
g6
sg11
g6
sg12
F13.708465290575578
sg13
g6
sg14
I00
sg15
I-25000
sg16
g6
sg17
g6
sg18
g6
sg19
I77492
sg20
g6
sg21
g6
sg23
g6
sg24
g6
sg25
I371750
sg26
g6
sg27
g6
sg28
I102492
sg29
I0
ssS'SHAPIRO RICHARD S'
p163
(dp164
g3
I15149
sg4
F4089098.0
sg5
g6
sg7
I650000
sg8
F9.953752818683679
sg9
I987001
sg10
I137767
sg11
I74
sg12
F15.223835210352297
sg13
I65
sg14
I00
sg15
g6
sg16
I379164
sg17
g6
sg18
I269076
sg19
I1057548
sg20
g6
sg21
S'richard.shapiro@enron.com'
p165
sg23
g6
sg24
I4527
sg25
I607837
sg26
I1215
sg27
I705
sg28
g6
sg29
F21030.0
ssS'SHERRIFF JOHN R'
p166
(dp167
g3
I3187
sg4
F14928740.0
sg5
g6
sg7
I1500000
sg8
F8.600430789986293
sg9
I3128982
sg10
g6
sg11
I28
sg12
F16.518798839100988
sg13
I23
sg14
I00
sg15
g6
sg16
I1293424
sg17
I554422
sg18
I428780
sg19
I4335388
sg20
g6
sg21
S'john.sherriff@enron.com'
p168
sg23
g6
sg24
I2103
sg25
I1835558
sg26
I92
sg27
I1852186
sg28
g6
sg29
F5433.0
ssS'SHELBY REX'
p169
(dp170
g3
I225
sg4
F8995002.0
sg5
g6
sg7
I200000
sg8
F5.948034989180646
sg9
I2493616
sg10
I22884
sg11
I13
sg12
F16.012179758885335
sg13
I14
sg14
I01
sg15
I-4167
sg16
I869220
sg17
g6
sg18
I211844
sg19
I2003885
sg20
g6
sg21
S'rex.shelby@enron.com'
p171
sg23
g6
sg24
I91
sg25
I1624396
sg26
I39
sg27
I1573324
sg28
g6
sg29
F382.0
ssS'LEMAISTRE CHARLES'
p172
(dp173
g3
g6
sg4
F1000740.0
sg5
g6
sg7
g6
sg8
F0.0
sg9
I412878
sg10
g6
sg11
g6
sg12
F13.816251283559321
sg13
g6
sg14
I00
sg15
I-25000
sg16
g6
sg17
g6
sg18
g6
sg19
I87492
sg20
g6
sg21
g6
sg23
g6
sg24
g6
sg25
I412878
sg26
g6
sg27
g6
sg28
I112492
sg29
I0
ssS'DEFFNER JOSEPH M'
p174
(dp175
g3
I714
sg4
F2735720.0
sg5
g6
sg7
I600000
sg8
F7.286191714702382
sg9
I159211
sg10
I41626
sg11
I115
sg12
F14.821905578840697
sg13
I4
sg14
I00
sg15
g6
sg16
I141833
sg17
I335349
sg18
I206121
sg19
I1208649
sg20
g6
sg21
S'joseph.deffner@enron.com'
p176
sg23
g6
sg24
I552
sg25
I17378
sg26
I74
sg27
I25553
sg28
g6
sg29
F1459.0
ssS'KISHKILL JOSEPH G'
p177
(dp178
g3
g6
sg4
F3478484.0
sg5
g6
sg7
g6
sg8
F0.0
sg9
I1034346
sg10
I116335
sg11
g6
sg12
F15.062107412132999
sg13
g6
sg14
I00
sg15
I-51042
sg16
I1034346
sg17
g6
sg18
I174246
sg19
I704896
sg20
g6
sg21
S'joe.kishkill@enron.com'
p179
sg23
g6
sg24
g6
sg25
g6
sg26
g6
sg27
I465357
sg28
g6
sg29
I0
ssS'WHALLEY LAWRENCE G'
p180
(dp181
g3
I6019
sg4
F21513422.0
sg5
g6
sg7
I3000000
sg8
F9.278559610953327
sg9
I6079137
sg10
I57838
sg11
I186
sg12
F16.88418762386915
sg13
I24
sg14
I00
sg15
g6
sg16
I2796177
sg17
I808346
sg18
I510364
sg19
I4677574
sg20
g6
sg21
S'greg.whalley@enron.com'
p182
sg23
g6
sg24
I3920
sg25
I3282960
sg26
I556
sg27
I301026
sg28
g6
sg29
F10705.0
ssS'PIRO JIM'
p183
(dp184
g3
I58
sg4
F94608.0
sg5
g6
sg7
g6
sg8
F4.3694478524670215
sg9
I47304
sg10
g6
sg11
I0
sg12
F11.45750788793541
sg13
I1
sg14
I00
sg15
g6
sg16
I47304
sg17
g6
sg18
g6
sg19
g6
sg20
g6
sg21
S'jim.piro@enron.com'
p185
sg23
g6
sg24
I3
sg25
g6
sg26
I16
sg27
g6
sg28
g6
sg29
F78.0
ssS'MCCONNELL MICHAEL S'
p186
(dp187
g3
I3329
sg4
F10405286.0
sg5
g6
sg7
I1100000
sg8
F9.053335623166017
sg9
I3101279
sg10
I81364
sg11
I92
sg12
F16.15782460032231
sg13
I194
sg14
I00
sg15
g6
sg16
I1478269
sg17
I554422
sg18
I365038
sg19
I2101364
sg20
g6
sg21
S'mike.mcconnell@enron.com'
p188
sg23
g6
sg24
I2189
sg25
I1623010
sg26
I2742
sg27
I540
sg28
g6
sg29
F8546.0
ssS'DELAINEY DAVID W'
p189
(dp190
g3
I3093
sg4
F16724480.0
sg5
g6
sg7
I3000000
sg8
F9.097731427593528
sg9
I3614261
sg10
I86174
sg11
I66
sg12
F16.63238413210695
sg13
I609
sg14
I01
sg15
g6
sg16
I1323148
sg17
I1294981
sg18
I365163
sg19
I4747979
sg20
g6
sg21
S'david.delainey@enron.com'
p191
sg23
g6
sg24
I2097
sg25
I2291113
sg26
I3069
sg27
I1661
sg28
g6
sg29
F8934.0
ssS'SULLIVAN-SHAKLOVITZ COLLEEN'
p192
(dp193
g3
g6
sg4
F4723462.0
sg5
I181993
sg7
I100000
sg8
F0.0
sg9
I1362375
sg10
g6
sg11
g6
sg12
F15.368052774986094
sg13
g6
sg14
I00
sg15
g6
sg16
g6
sg17
I554422
sg18
I162779
sg19
I999356
sg20
g6
sg21
g6
sg23
g6
sg24
g6
sg25
I1362375
sg26
g6
sg27
I162
sg28
g6
sg29
I0
ssS'LINDHOLM TOD A'
p194
(dp195
g3
g6
sg4
F7880194.0
sg5
I204075
sg7
I200000
sg8
F0.0
sg9
I3064208
sg10
I57727
sg11
g6
sg12
F15.879863207720772
sg13
g6
sg14
I00
sg15
g6
sg16
I514847
sg17
I175000
sg18
I236457
sg19
I875889
sg20
g6
sg21
S'tod.lindholm@enron.com'
p196
sg23
g6
sg24
g6
sg25
I2549361
sg26
g6
sg27
I2630
sg28
g6
sg29
I0
ssS'MEYER JEROME J'
p197
(dp198
g3
g6
sg4
F4302.0
sg5
g6
sg7
g6
sg8
F0.0
sg9
g6
sg10
I2151
sg11
g6
sg12
F8.3670677328386
sg13
g6
sg14
I00
sg15
I-38346
sg16
g6
sg17
g6
sg18
g6
sg19
I2151
sg20
g6
sg21
g6
sg23
g6
sg24
g6
sg25
g6
sg26
g6
sg27
g6
sg28
I38346
sg29
I0
ssS'LAY KENNETH L'
p199
(dp200
g3
I4273
sg4
F305339742.0
sg5
I202911
sg7
I7000000
sg8
F8.83346272071993
sg9
I49110078
sg10
I99832
sg11
I123
sg12
F19.536935626108036
sg13
I16
sg14
I01
sg15
I-300000
sg16
I14761694
sg17
I3600000
sg18
I1072321
sg19
I103559793
sg20
I81525000
sg21
S'kenneth.lay@enron.com'
p201
sg23
g6
sg24
I2411
sg25
I34348384
sg26
I36
sg27
I10359729
sg28
g6
sg29
F6859.0
ssS'BUTTS ROBERT H'
p202
(dp203
g3
g6
sg4
F3378402.0
sg5
g6
sg7
I750000
sg8
F0.0
sg9
I417619
sg10
I9410
sg11
g6
sg12
F15.032913670595793
sg13
g6
sg14
I00
sg15
I-75000
sg16
I417619
sg17
I175000
sg18
I261516
sg19
I1271582
sg20
g6
sg21
S'bob.butts@enron.com'
p204
sg23
g6
sg24
g6
sg25
g6
sg26
g6
sg27
I150656
sg28
g6
sg29
I0
ssS'OLSON CINDY K'
p205
(dp206
g3
I1184
sg4
F7856640.0
sg5
I77716
sg7
I750000
sg8
F7.662937850461535
sg9
I2606763
sg10
I63791
sg11
I20
sg12
F15.87686971937421
sg13
I15
sg14
I00
sg15
g6
sg16
I969729
sg17
I100000
sg18
I329078
sg19
I1321557
sg20
g6
sg21
S'cindy.olson@enron.com'
p207
sg23
g6
sg24
I856
sg25
I1637034
sg26
I52
sg27
I972
sg28
g6
sg29
F2127.0
ssS'MCDONALD REBECCA'
p208
(dp209
g3
I894
sg4
F3382732.0
sg5
g6
sg7
g6
sg8
F7.428333194190806
sg9
I1691366
sg10
g6
sg11
I54
sg12
F15.034194520616255
sg13
I1
sg14
I00
sg15
g6
sg16
I934065
sg17
g6
sg18
g6
sg19
g6
sg20
g6
sg21
S'rebecca.mcdonald@enron.com'
p210
sg23
g6
sg24
I720
sg25
I757301
sg26
I13
sg27
g6
sg28
g6
sg29
F1682.0
ssS'CUMBERLAND MICHAEL S'
p211
(dp212
g3
g6
sg4
F2031792.0
sg5
g6
sg7
I325000
sg8
F0.0
sg9
I207940
sg10
I22344
sg11
g6
sg12
F14.524429212412661
sg13
g6
sg14
I00
sg15
g6
sg16
I207940
sg17
I275000
sg18
I184899
sg19
I807956
sg20
g6
sg21
g6
sg23
g6
sg24
g6
sg25
g6
sg26
g6
sg27
I713
sg28
g6
sg29
I0
ssS'GAHN ROBERT S'
p213
(dp214
g3
g6
sg4
F2438384.0
sg5
I73122
sg7
I509870
sg8
F0.0
sg9
I318607
sg10
I50080
sg11
g6
sg12
F14.70684649288074
sg13
g6
sg14
I00
sg15
I-1042
sg16
I235370
sg17
g6
sg18
I192008
sg19
I900585
sg20
g6
sg21
g6
sg23
g6
sg24
g6
sg25
I83237
sg26
g6
sg27
I76547
sg28
g6
sg29
I0
ssS'BADUM JAMES P'
p215
(dp216
g3
g6
sg4
F880566.0
sg5
I178980
sg7
g6
sg8
F0.0
sg9
I257817
sg10
I3486
sg11
g6
sg12
F13.688321297152367
sg13
g6
sg14
I00
sg15
g6
sg16
g6
sg17
g6
sg18
g6
sg19
I182466
sg20
g6
sg21
g6
sg23
g6
sg24
g6
sg25
I257817
sg26
g6
sg27
g6
sg28
g6
sg29
I0
ssS'HERMANN ROBERT J'
p217
(dp218
g3
g6
sg4
F3931186.0
sg5
g6
sg7
I700000
sg8
F0.0
sg9
I668132
sg10
I48357
sg11
g6
sg12
F15.184451973865277
sg13
g6
sg14
I00
sg15
I-280000
sg16
I480632
sg17
I150000
sg18
I262663
sg19
I1297461
sg20
g6
sg21
S'robert.hermann@enron.com'
p219
sg23
g6
sg24
g6
sg25
I187500
sg26
g6
sg27
I416441
sg28
g6
sg29
I0
ssS'FALLON JAMES B'
p220
(dp221
g3
I1755
sg4
F12017478.0
sg5
g6
sg7
I2500000
sg8
F8.164510268747042
sg9
I2332399
sg10
I95924
sg11
I42
sg12
F16.30187273129709
sg13
I37
sg14
I00
sg15
g6
sg16
I1392142
sg17
I374347
sg18
I304588
sg19
I3676340
sg20
g6
sg21
S'jim.fallon@enron.com'
p222
sg23
g6
sg24
I1604
sg25
I940257
sg26
I75
sg27
I401481
sg28
g6
sg29
F3513.0
ssS'GATHMANN WILLIAM D'
p223
(dp224
g3
g6
sg4
F3890720.0
sg5
g6
sg7
g6
sg8
F0.0
sg9
I1945360
sg10
g6
sg11
g6
sg12
F15.17410504546369
sg13
g6
sg14
I00
sg15
g6
sg16
I264013
sg17
g6
sg18
g6
sg19
g6
sg20
g6
sg21
g6
sg23
I-72419
sg24
g6
sg25
I1753766
sg26
g6
sg27
g6
sg28
g6
sg29
I0
ssS'HORTON STANLEY C'
p225
(dp226
g3
I2350
sg4
F20777016.0
sg5
I3131860
sg7
g6
sg8
F8.424419791263883
sg9
I7256648
sg10
g6
sg11
I44
sg12
F16.849357981839034
sg13
I15
sg14
I00
sg15
g6
sg16
I2046079
sg17
g6
sg18
g6
sg19
I3131860
sg20
g6
sg21
S'stanley.horton@enron.com'
p227
sg23
g6
sg24
I1074
sg25
I5210569
sg26
I1073
sg27
g6
sg28
g6
sg29
F4556.0
ssS'BOWEN JR RAYMOND M'
p228
(dp229
g3
I1858
sg4
F5843288.0
sg5
g6
sg7
I1350000
sg8
F8.198089248956116
sg9
I252055
sg10
I65907
sg11
I140
sg12
F15.580804381206802
sg13
I15
sg14
I01
sg15
I-833
sg16
I252055
sg17
I974293
sg18
I278601
sg19
I2669589
sg20
g6
sg21
S'raymond.bowen@enron.com'
p230
sg23
g6
sg24
I1593
sg25
g6
sg26
I27
sg27
I1621
sg28
g6
sg29
F3633.0
ssS'GILLIS JOHN'
p231
(dp232
g3
g6
sg4
F171282.0
sg5
g6
sg7
g6
sg8
F0.0
sg9
I85641
sg10
g6
sg11
g6
sg12
F12.051072438289998
sg13
g6
sg14
I00
sg15
g6
sg16
I75838
sg17
g6
sg18
g6
sg19
g6
sg20
g6
sg21
g6
sg23
g6
sg24
g6
sg25
I9803
sg26
g6
sg27
g6
sg28
g6
sg29
I0
ssS'FASTOW ANDREW S'
p233
(dp234
g3
g6
sg4
F8436990.0
sg5
g6
sg7
I1300000
sg8
F0.0
sg9
I1794412
sg10
I55921
sg11
g6
sg12
F15.948136286417315
sg13
g6
sg14
I01
sg15
I-1386055
sg16
I1794412
sg17
I1736055
sg18
I440698
sg19
I2424083
sg20
g6
sg21
S'andrew.fastow@enron.com'
p235
sg23
g6
sg24
g6
sg25
g6
sg26
g6
sg27
I277464
sg28
g6
sg29
I0
ssS'FITZGERALD JAY L'
p236
(dp237
g3
I936
sg4
F6072186.0
sg5
g6
sg7
I350000
sg8
F7.429520842786462
sg9
I1621236
sg10
I23870
sg11
I1
sg12
F15.619229394684831
sg13
I8
sg14
I00
sg15
g6
sg16
I956775
sg17
I556416
sg18
I199157
sg19
I1414857
sg20
g6
sg21
S'jay.fitzgerald@enron.com'
p238
sg23
g6
sg24
I723
sg25
I664461
sg26
I16
sg27
I285414
sg28
g6
sg29
F1684.0
ssS'MORAN MICHAEL P'
p239
(dp240
g3
I672
sg4
F442282.0
sg5
g6
sg7
g6
sg8
F6.70808408385307
sg9
I221141
sg10
g6
sg11
I0
sg12
F12.999705227666706
sg13
I0
sg14
I00
sg15
g6
sg16
I161602
sg17
g6
sg18
g6
sg19
g6
sg20
g6
sg21
S'michael.moran@enron.com'
p241
sg23
g6
sg24
I127
sg25
I59539
sg26
I19
sg27
g6
sg28
g6
sg29
F818.0
ssS'REDMOND BRIAN L'
p242
(dp243
g3
I1671
sg4
F16003706.0
sg5
g6
sg7
g6
sg8
F8.073714641109857
sg9
I7890324
sg10
I14689
sg11
I204
sg12
F16.58833094086865
sg13
I49
sg14
I00
sg15
g6
sg16
I381285
sg17
g6
sg18
I96840
sg19
I111529
sg20
g6
sg21
S'brian.redmond@enron.com'
p244
sg23
g6
sg24
I1063
sg25
I7509039
sg26
I221
sg27
g6
sg28
g6
sg29
F3208.0
ssS'BAZELIDES PHILIP J'
p245
(dp246
g3
g6
sg4
F4919554.0
sg5
I684694
sg7
g6
sg8
F0.0
sg9
I1599641
sg10
g6
sg11
g6
sg12
F15.40872863722343
sg13
g6
sg14
I00
sg15
g6
sg16
g6
sg17
I93750
sg18
I80818
sg19
I860136
sg20
g6
sg21
g6
sg23
g6
sg24
g6
sg25
I1599641
sg26
g6
sg27
I874
sg28
g6
sg29
I0
ssS'BELDEN TIMOTHY N'
p247
(dp248
g3
I7991
sg4
F13224670.0
sg5
I2144013
sg7
I5249999
sg8
F9.570319849923216
sg9
I1110705
sg10
I17355
sg11
I228
sg12
F16.397594658272542
sg13
I108
sg14
I01
sg15
I-2334434
sg16
I157569
sg17
g6
sg18
I213999
sg19
I5501630
sg20
g6
sg21
S'tim.belden@enron.com'
p249
sg23
g6
sg24
I5521
sg25
I953136
sg26
I484
sg27
I210698
sg28
g6
sg29
F14332.0
ssS'DIMICHELE RICHARD G'
p250
(dp251
g3
g6
sg4
F21371866.0
sg5
g6
sg7
I1000000
sg8
F0.0
sg9
I8317782
sg10
I35812
sg11
g6
sg12
F16.877585988944798
sg13
g6
sg14
I00
sg15
g6
sg16
I126027
sg17
I694862
sg18
I262788
sg19
I2368151
sg20
g6
sg21
S'richard.dimichele@enron.com'
p252
sg23
g6
sg24
g6
sg25
I8191755
sg26
g6
sg27
I374689
sg28
g6
sg29
I0
ssS'DURAN WILLIAM D'
p253
(dp254
g3
I904
sg4
F7468346.0
sg5
g6
sg7
I750000
sg8
F7.393263094763838
sg9
I1640910
sg10
I25785
sg11
I106
sg12
F15.826184247481269
sg13
I3
sg14
I00
sg15
g6
sg16
I189041
sg17
I1105218
sg18
I210692
sg19
I2093263
sg20
g6
sg21
S'w.duran@enron.com'
p255
sg23
g6
sg24
I599
sg25
I1451869
sg26
I12
sg27
I1568
sg28
g6
sg29
F1624.0
ssS'THORN TERENCE H'
p256
(dp257
g3
I266
sg4
F11458498.0
sg5
I16586
sg7
g6
sg8
F5.942799375126701
sg9
I4817796
sg10
I46145
sg11
I0
sg12
F16.2542422833602
sg13
I0
sg14
I00
sg15
g6
sg16
I365320
sg17
I200000
sg18
I222093
sg19
I911453
sg20
g6
sg21
S'terence.thorn@enron.com'
p258
sg23
g6
sg24
I73
sg25
I4452476
sg26
I41
sg27
I426629
sg28
g6
sg29
F380.0
ssS'FOY JOE'
p259
(dp260
g3
I57
sg4
F1050378.0
sg5
I181755
sg7
g6
sg8
F4.290459441148391
sg9
I343434
sg10
g6
sg11
I0
sg12
F13.864661609387019
sg13
I0
sg14
I00
sg15
g6
sg16
g6
sg17
g6
sg18
g6
sg19
I181755
sg20
g6
sg21
S'tracy.foy@enron.com'
p261
sg23
g6
sg24
I2
sg25
I343434
sg26
I13
sg27
g6
sg28
g6
sg29
F72.0
ssS'CALGER CHRISTOPHER F'
p262
(dp263
g3
I2598
sg4
F3530648.0
sg5
g6
sg7
I1250000
sg8
F8.54772239645106
sg9
I126027
sg10
I35818
sg11
I199
sg12
F15.076992264701863
sg13
I25
sg14
I01
sg15
I-262500
sg16
I126027
sg17
I375304
sg18
I240189
sg19
I1639297
sg20
g6
sg21
S'christopher.calger@enron.com'
p264
sg23
g6
sg24
I2188
sg25
g6
sg26
I144
sg27
I486
sg28
g6
sg29
F5154.0
ssS'RICE KENNETH D'
p265
(dp266
g3
I905
sg4
F46095178.0
sg5
g6
sg7
I1750000
sg8
F7.51425465281641
sg9
I22542539
sg10
I46950
sg11
I42
sg12
F17.646218925491812
sg13
I4
sg14
I01
sg15
I-3504386
sg16
I2748364
sg17
I1617011
sg18
I420636
sg19
I505050
sg20
g6
sg21
S'ken.rice@enron.com'
p267
sg23
g6
sg24
I864
sg25
I19794175
sg26
I18
sg27
I174839
sg28
g6
sg29
F1833.0
ssS'KAMINSKI WINCENTY J'
p268
(dp269
g3
I4607
sg4
F4125716.0
sg5
g6
sg7
I400000
sg8
F9.89197149657488
sg9
I976037
sg10
I83585
sg11
I41
sg12
F15.232750380828106
sg13
I171
sg14
I00
sg15
g6
sg16
I126027
sg17
I323466
sg18
I275101
sg19
I1086821
sg20
g6
sg21
S'vince.kaminski@enron.com'
p270
sg23
g6
sg24
I583
sg25
I850010
sg26
I14368
sg27
I4669
sg28
g6
sg29
F19770.0
ssS'COX DAVID'
p271
(dp272
g3
I102
sg4
F3194052.0
sg5
g6
sg7
I800000
sg8
F5.351858133476067
sg9
I495633
sg10
I27861
sg11
I0
sg12
F14.976801201232448
sg13
I4
sg14
I00
sg15
I-41250
sg16
I378082
sg17
g6
sg18
I314288
sg19
I1101393
sg20
g6
sg21
S'chip.cox@enron.com'
p273
sg23
g6
sg24
I71
sg25
I117551
sg26
I33
sg27
I494
sg28
g6
sg29
F210.0
ssS'OVERDYKE JR JERE C'
p274
(dp275
g3
g6
sg4
F15114762.0
sg5
g6
sg7
g6
sg8
F0.0
sg9
I7307594
sg10
I18834
sg11
g6
sg12
F16.531182506284477
sg13
g6
sg14
I00
sg15
g6
sg16
I2041016
sg17
I135836
sg18
I94941
sg19
I249787
sg20
g6
sg21
S'jere.overdyke@enron.com'
p276
sg23
g6
sg24
g6
sg25
I5266578
sg26
g6
sg27
I176
sg28
g6
sg29
I0
ssS'PEREIRA PAULO V. FERRAZ'
p277
(dp278
g3
g6
sg4
F55884.0
sg5
g6
sg7
g6
sg8
F0.0
sg9
g6
sg10
I27942
sg11
g6
sg12
F10.931051286819711
sg13
g6
sg14
I00
sg15
I-101250
sg16
g6
sg17
g6
sg18
g6
sg19
I27942
sg20
g6
sg21
g6
sg23
g6
sg24
g6
sg25
g6
sg26
g6
sg27
g6
sg28
I101250
sg29
I0
ssS'STABLER FRANK'
p279
(dp280
g3
g6
sg4
F3247642.0
sg5
g6
sg7
I500000
sg8
F0.0
sg9
I511734
sg10
I16514
sg11
g6
sg12
F14.993440060429638
sg13
g6
sg14
I00
sg15
g6
sg16
I511734
sg17
g6
sg18
I239502
sg19
I1112087
sg20
g6
sg21
S'frank.stabler@enron.com'
p281
sg23
g6
sg24
g6
sg25
g6
sg26
g6
sg27
I356071
sg28
g6
sg29
I0
ssS'SKILLING JEFFREY K'
p282
(dp283
g3
I3627
sg4
F69552776.0
sg5
g6
sg7
I5600000
sg8
F8.682029433869172
sg9
I26093672
sg10
I29336
sg11
I88
sg12
F18.057596403645896
sg13
I30
sg14
I01
sg15
g6
sg16
I6843672
sg17
I1920000
sg18
I1111258
sg19
I8682716
sg20
g6
sg21
S'jeff.skilling@enron.com'
p284
sg23
g6
sg24
I2042
sg25
I19250000
sg26
I108
sg27
I22122
sg28
g6
sg29
F5895.0
ssS'BLAKE JR. NORMAN P'
p285
(dp286
g3
g6
sg4
F2558.0
sg5
g6
sg7
g6
sg8
F0.0
sg9
g6
sg10
I1279
sg11
g6
sg12
F7.847371836159788
sg13
g6
sg14
I00
sg15
I-113784
sg16
g6
sg17
g6
sg18
g6
sg19
I1279
sg20
g6
sg21
g6
sg23
g6
sg24
g6
sg25
g6
sg26
g6
sg27
g6
sg28
I113784
sg29
I0
ssS'SHERRICK JEFFREY B'
p287
(dp288
g3
I613
sg4
F3664936.0
sg5
g6
sg7
g6
sg8
F7.153833801578843
sg9
I1832468
sg10
g6
sg11
I39
sg12
F15.114321703523494
sg13
I18
sg14
I00
sg15
g6
sg16
I405999
sg17
g6
sg18
g6
sg19
g6
sg20
g6
sg21
S'jeffrey.sherrick@enron.com'
p289
sg23
g6
sg24
I583
sg25
I1426469
sg26
I25
sg27
g6
sg28
g6
sg29
F1278.0
ssS'PRENTICE JAMES'
p290
(dp291
g3
g6
sg4
F3318776.0
sg5
I564348
sg7
g6
sg8
F0.0
sg9
I1095040
sg10
g6
sg11
g6
sg12
F15.015106899532512
sg13
g6
sg14
I00
sg15
g6
sg16
I208809
sg17
g6
sg18
g6
sg19
I564348
sg20
g6
sg21
S'james.prentice@enron.com'
p292
sg23
g6
sg24
g6
sg25
I886231
sg26
g6
sg27
g6
sg28
g6
sg29
I0
ssS'GRAY RODNEY'
p293
(dp294
g3
g6
sg4
F2293316.0
sg5
I93585
sg7
g6
sg8
F0.0
sg9
g6
sg10
g6
sg11
g6
sg12
F14.645509799123031
sg13
g6
sg14
I00
sg15
g6
sg16
g6
sg17
I365625
sg18
I6615
sg19
I1146658
sg20
g6
sg21
g6
sg23
g6
sg24
g6
sg25
g6
sg26
g6
sg27
I680833
sg28
g6
sg29
I0
ssS'UMANOFF ADAM S'
p295
(dp296
g3
I111
sg4
F2260922.0
sg5
g6
sg7
I788750
sg8
F5.209486152841421
sg9
g6
sg10
I53122
sg11
I12
sg12
F14.631283694952643
sg13
I0
sg14
I00
sg15
g6
sg16
g6
sg17
g6
sg18
I288589
sg19
I1130461
sg20
g6
sg21
S'adam.umanoff@enron.com'
p297
sg23
g6
sg24
I41
sg25
g6
sg26
I18
sg27
g6
sg28
g6
sg29
F182.0
ssS'KEAN STEVEN J'
p298
(dp299
g3
I12754
sg4
F15802328.0
sg5
g6
sg7
I1000000
sg8
F10.072386088997941
sg9
I6153642
sg10
I41953
sg11
I140
sg12
F16.575667892197426
sg13
I387
sg14
I00
sg15
g6
sg16
I4131594
sg17
I300000
sg18
I404338
sg19
I1747522
sg20
g6
sg21
S'steven.kean@enron.com'
p300
sg23
g6
sg24
I3639
sg25
I2022048
sg26
I6759
sg27
I1231
sg28
g6
sg29
F23679.0
ssS'FOWLER PEGGY'
p301
(dp302
g3
I517
sg4
F3769496.0
sg5
g6
sg7
g6
sg8
F6.335054251498059
sg9
I1884748
sg10
g6
sg11
I0
sg12
F15.142452128772057
sg13
I0
sg14
I00
sg15
g6
sg16
I560170
sg17
g6
sg18
g6
sg19
g6
sg20
g6
sg21
S'kulvinder.fowler@enron.com'
p303
sg23
g6
sg24
I10
sg25
I1324578
sg26
I36
sg27
g6
sg28
g6
sg29
F563.0
ssS'WASAFF GEORGE'
p304
(dp305
g3
I400
sg4
F6181644.0
sg5
I831299
sg7
I325000
sg8
F6.680854678790215
sg9
I2056427
sg10
g6
sg11
I22
sg12
F15.63709497524371
sg13
I7
sg14
I00
sg15
I-583325
sg16
I388167
sg17
I200000
sg18
I259996
sg19
I1034395
sg20
g6
sg21
S'george.wasaff@enron.com'
p306
sg23
g6
sg24
I337
sg25
I1668260
sg26
I30
sg27
I1425
sg28
g6
sg29
F796.0
ssS'WHITE JR THOMAS E'
p307
(dp308
g3
g6
sg4
F34156964.0
sg5
g6
sg7
I450000
sg8
F0.0
sg9
I15144123
sg10
I81353
sg11
g6
sg12
F17.346477076333333
sg13
g6
sg14
I00
sg15
g6
sg16
I13847074
sg17
g6
sg18
I317543
sg19
I1934359
sg20
g6
sg21
S'thomas.white@enron.com'
p309
sg23
g6
sg24
g6
sg25
I1297049
sg26
g6
sg27
I1085463
sg28
g6
sg29
I0
ssS'CHRISTODOULOU DIOMEDES'
p310
(dp311
g3
g6
sg4
F12155770.0
sg5
g6
sg7
g6
sg8
F0.0
sg9
I6077885
sg10
g6
sg11
g6
sg12
F16.31331459440768
sg13
g6
sg14
I00
sg15
g6
sg16
I950730
sg17
g6
sg18
g6
sg19
g6
sg20
g6
sg21
S'diomedes.christodoulou@enron.com'
p312
sg23
g6
sg24
g6
sg25
I5127155
sg26
g6
sg27
g6
sg28
g6
sg29
I0
ssS'ALLEN PHILLIP K'
p313
(dp314
g3
I2902
sg4
F12427966.0
sg5
I2869717
sg7
I4175000
sg8
F8.797397374012059
sg9
I1729541
sg10
I13868
sg11
I47
sg12
F16.335459894197054
sg13
I65
sg14
I00
sg15
I-3081055
sg16
I126027
sg17
I304805
sg18
I201955
sg19
I4484442
sg20
g6
sg21
S'phillip.allen@enron.com'
p315
sg23
I-126027
sg24
I1407
sg25
I1729541
sg26
I2195
sg27
I152
sg28
g6
sg29
F6616.0
ssS'SHARP VICTORIA T'
p316
(dp317
g3
I3136
sg4
F4141294.0
sg5
I187469
sg7
I600000
sg8
F8.662158961666423
sg9
I494136
sg10
I116337
sg11
I24
sg12
F15.236519098821539
sg13
I6
sg14
I00
sg15
g6
sg16
I213063
sg17
I422158
sg18
I248146
sg19
I1576511
sg20
g6
sg21
S'vicki.sharp@enron.com'
p318
sg23
g6
sg24
I2477
sg25
I281073
sg26
I136
sg27
I2401
sg28
g6
sg29
F5779.0
ssS'JAEDICKE ROBERT'
p319
(dp320
g3
g6
sg4
F1031000.0
sg5
g6
sg7
g6
sg8
F0.0
sg9
I431750
sg10
g6
sg11
g6
sg12
F13.846040732930732
sg13
g6
sg14
I00
sg15
I-25000
sg16
I44093
sg17
g6
sg18
g6
sg19
I83750
sg20
g6
sg21
g6
sg23
I-44093
sg24
g6
sg25
I431750
sg26
g6
sg27
g6
sg28
I108750
sg29
I0
ssS'WINOKUR JR. HERBERT S'
p321
(dp322
g3
g6
sg4
F169984.0
sg5
g6
sg7
g6
sg8
F0.0
sg9
g6
sg10
I1413
sg11
g6
sg12
F12.043465476845318
sg13
g6
sg14
I00
sg15
I-25000
sg16
g6
sg17
g6
sg18
g6
sg19
I84992
sg20
g6
sg21
g6
sg23
g6
sg24
g6
sg25
g6
sg26
g6
sg27
g6
sg28
I108579
sg29
I0
ssS'BROWN MICHAEL'
p323
(dp324
g3
I1486
sg4
F98576.0
sg5
g6
sg7
g6
sg8
F7.741967899820685
sg9
g6
sg10
I49288
sg11
I13
sg12
F11.498593247659967
sg13
I1
sg14
I00
sg15
g6
sg16
g6
sg17
g6
sg18
g6
sg19
I49288
sg20
g6
sg21
S'michael.brown@enron.com'
p325
sg23
g6
sg24
I761
sg25
g6
sg26
I41
sg27
g6
sg28
g6
sg29
F2302.0
ssS'MCCLELLAN GEORGE'
p326
(dp327
g3
I1744
sg4
F4533248.0
sg5
g6
sg7
I900000
sg8
F8.106212902619962
sg9
I947861
sg10
I228763
sg11
I52
sg12
F15.326949458923957
sg13
I0
sg14
I00
sg15
I-125000
sg16
I441096
sg17
g6
sg18
I263413
sg19
I1318763
sg20
g6
sg21
S'george.mcclellan@enron.com'
p328
sg23
g6
sg24
I1469
sg25
I506765
sg26
I49
sg27
I51587
sg28
g6
sg29
F3314.0
ssS'HUGHES JAMES A'
p329
(dp330
g3
I719
sg4
F2236788.0
sg5
g6
sg7
g6
sg8
F7.232010331664759
sg9
I1118394
sg10
g6
sg11
I35
sg12
F14.620551913269908
sg13
I5
sg14
I00
sg15
g6
sg16
I363428
sg17
g6
sg18
g6
sg19
g6
sg20
g6
sg21
S'james.hughes@enron.com'
p331
sg23
g6
sg24
I589
sg25
I754966
sg26
I34
sg27
g6
sg28
g6
sg29
F1382.0
ssS'REYNOLDS LAWRENCE'
p332
(dp333
g3
g6
sg4
F9232732.0
sg5
I51365
sg7
I100000
sg8
F0.0
sg9
I4221891
sg10
I8409
sg11
g6
sg12
F16.038265662325152
sg13
g6
sg14
I00
sg15
I-200000
sg16
I201483
sg17
I156250
sg18
I76399
sg19
I394475
sg20
g6
sg21
g6
sg23
I-140264
sg24
g6
sg25
I4160672
sg26
g6
sg27
I202052
sg28
g6
sg29
I0
ssS'PICKERING MARK R'
p334
(dp335
g3
I898
sg4
F2830976.0
sg5
g6
sg7
I300000
sg8
F7.438971592395862
sg9
I28798
sg10
I31653
sg11
I7
sg12
F14.856132439723345
sg13
I0
sg14
I00
sg15
g6
sg16
g6
sg17
g6
sg18
I655037
sg19
I1386690
sg20
I400000
sg21
S'mark.pickering@enron.com'
p336
sg23
g6
sg24
I728
sg25
I28798
sg26
I67
sg27
g6
sg28
g6
sg29
F1700.0
ssS'BHATNAGAR SANJAY'
p337
(dp338
g3
I523
sg4
F31188308.0
sg5
g6
sg7
g6
sg8
F6.92461239604856
sS'total_stock_value'
p339
S'NaN'
p340
sg10
g6
sg11
I0
sg12
F17.255553871019337
sg13
I1
sg14
I00
sg15
g6
sg16
I-2604490
sg17
g6
sg18
g6
sg19
I15456290
sg20
g6
sg21
S'sanjay.bhatnagar@enron.com'
p341
sg23
I15456290
sg24
I463
sg25
I2604490
sg26
I29
sg27
I137864
sg28
I137864
sg29
F1016.0
ssS'CARTER REBECCA C'
p342
(dp343
g3
I312
sg4
F955114.0
sg5
g6
sg7
I300000
sg8
F6.327936783729195
sg9
g6
sg10
g6
sg11
I29
sg12
F13.769587031061267
sg13
I7
sg14
I00
sg15
I-159792
sg16
I307301
sg17
I75000
sg18
I261809
sg19
I477557
sg20
g6
sg21
S'rebecca.carter@enron.com'
p344
sg23
I-307301
sg24
I196
sg25
g6
sg26
I15
sg27
I540
sg28
g6
sg29
F559.0
ssS'BUCHANAN HAROLD G'
p345
(dp346
g3
I1088
sg4
F4138284.0
sg5
g6
sg7
I500000
sg8
F7.1204443723924875
sg9
I1014505
sg10
I600
sg11
I0
sg12
F15.235792008768033
sg13
I0
sg14
I00
sg15
g6
sg16
I189041
sg17
I304805
sg18
I248017
sg19
I1054637
sg20
g6
sg21
S'john.buchanan@enron.com'
p347
sg23
g6
sg24
I23
sg25
I825464
sg26
I125
sg27
I1215
sg28
g6
sg29
F1236.0
ssS'YEAP SOON'
p348
(dp349
g3
g6
sg4
F495710.0
sg5
g6
sg7
g6
sg8
F0.0
sg9
I192758
sg10
I55097
sg11
g6
sg12
F13.113748374603686
sg13
g6
sg14
I00
sg15
g6
sg16
g6
sg17
g6
sg18
g6
sg19
I55097
sg20
g6
sg21
g6
sg23
g6
sg24
g6
sg25
I192758
sg26
g6
sg27
g6
sg28
g6
sg29
I0
ssS'MURRAY JULIA H'
p350
(dp351
g3
I2192
sg4
F2819310.0
sg5
g6
sg7
I400000
sg8
F7.880804344674901
sg9
I597461
sg10
I57580
sg11
I11
sg12
F14.852003086820643
sg13
I2
sg14
I00
sg15
g6
sg16
I196983
sg17
I125000
sg18
I229284
sg19
I812194
sg20
g6
sg21
S'julia.murray@enron.com'
p352
sg23
g6
sg24
I395
sg25
I400478
sg26
I45
sg27
I330
sg28
g6
sg29
F2645.0
ssS'GARLAND C KEVIN'
p353
(dp354
g3
I209
sg4
F4925244.0
sg5
g6
sg7
I850000
sg8
F6.150602768446279
sg9
I896153
sg10
I48405
sg11
I10
sg12
F15.409884577543918
sg13
I27
sg14
I00
sg15
g6
sg16
I259907
sg17
I375304
sg18
I231946
sg19
I1566469
sg20
g6
sg21
S'kevin.garland@enron.com'
p355
sg23
g6
sg24
I178
sg25
I636246
sg26
I44
sg27
I60814
sg28
g6
sg29
F468.0
ssS'DODSON KEITH'
p356
(dp357
g3
I176
sg4
F639882.0
sg5
g6
sg7
I70000
sg8
F5.762051382780177
sg9
g6
sg10
I28164
sg11
I10
sg12
F13.369040626123613
sg13
I3
sg14
I00
sg15
g6
sg16
g6
sg17
g6
sg18
I221003
sg19
I319941
sg20
g6
sg21
S'keith.dodson@enron.com'
p358
sg23
g6
sg24
I114
sg25
g6
sg26
I14
sg27
I774
sg28
g6
sg29
F317.0
ssS'YEAGER F SCOTT'
p359
(dp360
g3
g6
sg4
F24490116.0
sg5
g6
sg7
g6
sg8
F0.0
sg9
I11884758
sg10
I53947
sg11
g6
sg12
F17.013780206377128
sg13
g6
sg14
I01
sg15
g6
sg16
I3576206
sg17
g6
sg18
I158403
sg19
I360300
sg20
g6
sg21
S'scott.yeager@enron.com'
p361
sg23
g6
sg24
g6
sg25
I8308552
sg26
g6
sg27
I147950
sg28
g6
sg29
I0
ssS'HIRKO JOSEPH'
p362
(dp363
g3
g6
sg4
F61714314.0
sg5
I10259
sg7
g6
sg8
F0.0
sg9
I30766064
sg10
I77978
sg11
g6
sg12
F17.938026471689994
sg13
g6
sg14
I01
sg15
g6
sg16
g6
sg17
g6
sg18
g6
sg19
I91093
sg20
g6
sg21
S'joe.hirko@enron.com'
p364
sg23
g6
sg24
g6
sg25
I30766064
sg26
g6
sg27
I2856
sg28
g6
sg29
I0
ssS'DIETRICH JANET R'
p365
(dp366
g3
I2572
sg4
F6551102.0
sg5
g6
sg7
I600000
sg8
F8.488176242345745
sg9
I1865087
sg10
I3475
sg11
I305
sg12
F15.695143990380826
sg13
I14
sg14
I00
sg15
g6
sg16
I315068
sg17
I556416
sg18
I250100
sg19
I1410464
sg20
g6
sg21
S'janet.dietrich@enron.com'
p367
sg23
g6
sg24
I1902
sg25
I1550019
sg26
I63
sg27
I473
sg28
g6
sg29
F4856.0
ssS'DERRICK JR. JAMES V'
p368
(dp369
g3
I2181
sg4
F18765788.0
sg5
g6
sg7
I800000
sg8
F8.428580533059634
sg9
I8831913
sg10
I51124
sg11
I64
sg12
F16.747546036030243
sg13
I20
sg14
I00
sg15
I-1284000
sg16
I1787380
sg17
I484000
sg18
I492375
sg19
I550981
sg20
g6
sg21
S'james.derrick@enron.com'
p370
sg23
I-1787380
sg24
I1401
sg25
I8831913
sg26
I909
sg27
I7482
sg28
g6
sg29
F4575.0
ssS'FREVERT MARK A'
p371
(dp372
g3
I3275
sg4
F63749430.0
sg5
I6426990
sg7
I2000000
sg8
F8.783242963740905
sg9
I14622185
sg10
I86987
sg11
I242
sg12
F17.97047081647278
sg13
I6
sg14
I00
sg15
I-3367011
sg16
I4188667
sg17
I1617011
sg18
I1060932
sg19
I17252530
sg20
I2000000
sg21
S'mark.frevert@enron.com'
p373
sg23
g6
sg24
I2979
sg25
I10433518
sg26
I21
sg27
I7427621
sg28
g6
sg29
F6523.0
ssS'PAI LOU L'
p374
(dp375
g3
g6
sg4
F53882626.0
sg5
g6
sg7
I1000000
sg8
F0.0
sg9
I23817930
sg10
I32047
sg11
g6
sg12
F17.802318664813797
sg13
g6
sg14
I00
sg15
g6
sg16
I8453763
sg17
g6
sg18
I261879
sg19
I3123383
sg20
g6
sg21
S'lou.pai@enron.com'
p376
sg23
g6
sg24
g6
sg25
I15364167
sg26
g6
sg27
I1829457
sg28
g6
sg29
I0
ssS'HAYSLETT RODERICK J'
p377
(dp378
g3
I2649
sg4
F693326.0
sg5
g6
sg7
g6
sg8
F8.379079889286603
sg9
I346663
sg10
g6
sg11
I35
sg12
F13.449257028352285
sg13
I38
sg14
I00
sg15
g6
sg16
I346663
sg17
g6
sg18
g6
sg19
g6
sg20
g6
sg21
S'rod.hayslett@enron.com'
p379
sg23
g6
sg24
I571
sg25
g6
sg26
I1061
sg27
g6
sg28
g6
sg29
F4354.0
ssS'BAY FRANKLIN R'
p380
(dp381
g3
g6
sg4
F1781420.0
sg5
I260455
sg7
I400000
sg8
F0.0
sg9
I63014
sg10
I129142
sg11
g6
sg12
F14.392921918391393
sg13
g6
sg14
I00
sg15
I-201641
sg16
I145796
sg17
g6
sg18
I239671
sg19
I827696
sg20
g6
sg21
S'frank.bay@enron.com'
p382
sg23
I-82782
sg24
g6
sg25
g6
sg26
g6
sg27
I69
sg28
g6
sg29
I0
ssS'MCCARTY DANNY J'
p383
(dp384
g3
I1433
sg4
F1517862.0
sg5
g6
sg7
g6
sg8
F7.688913336864796
sg9
I758931
sg10
g6
sg11
I25
sg12
F14.232813982535525
sg13
I2
sg14
I00
sg15
g6
sg16
I94556
sg17
g6
sg18
g6
sg19
g6
sg20
g6
sg21
S'danny.mccarty@enron.com'
p385
sg23
g6
sg24
I508
sg25
I664375
sg26
I215
sg27
g6
sg28
g6
sg29
F2183.0
ssS'FUGH JOHN L'
p386
(dp387
g3
g6
sg4
F453938.0
sg5
I50591
sg7
g6
sg8
F0.0
sg9
I176378
sg10
g6
sg11
g6
sg12
F13.025718106762726
sg13
g6
sg14
I00
sg15
g6
sg16
g6
sg17
g6
sg18
g6
sg19
I50591
sg20
g6
sg21
g6
sg23
g6
sg24
g6
sg25
I176378
sg26
g6
sg27
g6
sg28
g6
sg29
I0
ssS'SCRIMSHAW MATTHEW'
p388
(dp389
g3
g6
sg4
F1519114.0
sg5
g6
sg7
g6
sg8
F0.0
sg9
I759557
sg10
g6
sg11
g6
sg12
F14.233638486414662
sg13
g6
sg14
I00
sg15
g6
sg16
g6
sg17
g6
sg18
g6
sg19
g6
sg20
g6
sg21
S'matthew.scrimshaw@enron.com'
p390
sg23
g6
sg24
g6
sg25
I759557
sg26
g6
sg27
g6
sg28
g6
sg29
I0
ssS'KOENIG MARK E'
p391
(dp392
g3
I2374
sg4
F7014952.0
sg5
g6
sg7
I700000
sg8
F8.471149252914831
sg9
I1920055
sg10
I127017
sg11
I53
sg12
F15.76355457156753
sg13
I15
sg14
I01
sg15
g6
sg16
I1248318
sg17
I300000
sg18
I309946
sg19
I1587421
sg20
g6
sg21
S'mark.koenig@enron.com'
p393
sg23
g6
sg24
I2271
sg25
I671737
sg26
I61
sg27
I150458
sg28
g6
sg29
F4774.0
ssS'SAVAGE FRANK'
p394
(dp395
g3
g6
sg4
F7500.0
sg5
g6
sg7
g6
sg8
F0.0
sg9
g6
sg10
g6
sg11
g6
sg12
F8.922791623969637
sg13
g6
sg14
I00
sg15
I-121284
sg16
g6
sg17
g6
sg18
g6
sg19
I3750
sg20
g6
sg21
g6
sg23
g6
sg24
g6
sg25
g6
sg26
g6
sg27
g6
sg28
I125034
sg29
I0
ssS'IZZO LAWRENCE L'
p396
(dp397
g3
I496
sg4
F15599152.0
sg5
g6
sg7
g6
sg8
F6.893656354602635
sg9
I5819980
sg10
I28093
sg11
I28
sg12
F16.56272717587395
sg13
I5
sg14
I00
sg15
g6
sg16
I3654808
sg17
I312500
sg18
I85274
sg19
I1979596
sg20
g6
sg21
S'larry.izzo@enron.com'
p398
sg23
g6
sg24
I437
sg25
I2165172
sg26
I19
sg27
I1553729
sg28
g6
sg29
F985.0
ssS'TILNEY ELIZABETH A'
p399
(dp400
g3
I460
sg4
F3134870.0
sg5
g6
sg7
I300000
sg8
F6.779921907472252
sg9
I1168042
sg10
g6
sg11
I10
sg12
F14.958098582877184
sg13
I11
sg14
I00
sg15
I-575000
sg16
I576792
sg17
I275000
sg18
I247338
sg19
I399393
sg20
g6
sg21
S'elizabeth.tilney@enron.com'
p401
sg23
g6
sg24
I379
sg25
I591250
sg26
I19
sg27
I152055
sg28
g6
sg29
F879.0
ssS'MARTIN AMANDA K'
p402
(dp403
g3
I1522
sg4
F20954644.0
sg5
I85430
sg7
g6
sg8
F7.71333788887187
sg9
I2070306
sg10
I8211
sg11
I8
sg12
F16.857870898133623
sg13
I0
sg14
I00
sg15
g6
sg16
g6
sg17
I5145434
sg18
I349487
sg19
I8407016
sg20
g6
sg21
S'a..martin@enron.com'
p404
sg23
g6
sg24
I477
sg25
I2070306
sg26
I230
sg27
I2818454
sg28
g6
sg29
F2237.0
ssS'BUY RICHARD B'
p405
(dp406
g3
I3523
sg4
F11600344.0
sg5
I649584
sg7
I900000
sg8
F8.873047798971067
sg9
I3444470
sg10
g6
sg11
I156
sg12
F16.266545397013637
sg13
I71
sg14
I00
sg15
I-694862
sg16
I901657
sg17
I769862
sg18
I330546
sg19
I2355702
sg20
g6
sg21
S'rick.buy@enron.com'
p407
sg23
g6
sg24
I2333
sg25
I2542813
sg26
I1053
sg27
I400572
sg28
g6
sg29
F7136.0
ssS'CAUSEY RICHARD A'
p408
(dp409
g3
I1892
sg4
F8741642.0
sg5
g6
sg7
I1000000
sg8
F8.187855443695623
sg9
I2502063
sg10
I30674
sg11
I58
sg12
F15.983608716234537
sg13
I12
sg14
I01
sg15
I-235000
sg16
I2502063
sg17
I350000
sg18
I415189
sg19
I1868758
sg20
g6
sg21
S'richard.causey@enron.com'
p410
sg23
g6
sg24
I1585
sg25
g6
sg26
I49
sg27
I307895
sg28
g6
sg29
F3596.0
ssS'TAYLOR MITCHELL S'
p411
(dp412
g3
I533
sg4
F9675422.0
sg5
I227449
sg7
I600000
sg8
F6.760414691083428
sg9
I3745048
sg10
g6
sg11
I0
sg12
F16.08509951685462
sg13
I0
sg14
I00
sg15
g6
sg16
I563798
sg17
g6
sg18
I265214
sg19
I1092663
sg20
g6
sg21
S'mitchell.taylor@enron.com'
p413
sg23
g6
sg24
I300
sg25
I3181250
sg26
I29
sg27
g6
sg28
g6
sg29
F862.0
ssS'DONAHUE JR JEFFREY M'
p414
(dp415
g3
I865
sg4
F3913496.0
sg5
g6
sg7
I800000
sg8
F7.527793987721444
sg9
I1080988
sg10
I96268
sg11
I188
sg12
F15.179941905649503
sg13
I11
sg14
I00
sg15
I-300000
sg16
I315068
sg17
g6
sg18
I278601
sg19
I875760
sg20
g6
sg21
S'jeff.donahue@enron.com'
p416
sg23
g6
sg24
I772
sg25
I765920
sg26
I22
sg27
I891
sg28
g6
sg29
F1858.0
ssS'GLISAN JR BEN F'
p417
(dp418
g3
I873
sg4
F4101660.0
sg5
g6
sg7
I600000
sg8
F7.507690077819904
sg9
I778546
sg10
I125978
sg11
I52
sg12
F15.226902571586015
sg13
I6
sg14
I01
sg15
g6
sg16
I393818
sg17
I71023
sg18
I274975
sg19
I1272284
sg20
g6
sg21
S'ben.glisan@enron.com'
p419
sg23
g6
sg24
I874
sg25
I384728
sg26
I16
sg27
I200308
sg28
g6
sg29
F1821.0
ss.