(lp0
S'poi'
p1
aS'to_messages'
p2
aS'financial_info'
p3
aS'deferral_payments'
p4
aS'bonus'
p5
aS'log_communicating_info'
p6
aS'total_stock_value'
p7
aS'expenses'
p8
aS'from_poi_to_this_person'
p9
aS'log_financial_info'
p10
aS'from_this_person_to_poi'
p11
aS'deferred_income'
p12
aS'restricted_stock'
p13
aS'long_term_incentive'
p14
aS'salary'
p15
aS'total_payments'
p16
aS'loan_advances'
p17
aS'restricted_stock_deferred'
p18
aS'shared_receipt_with_poi'
p19
aS'exercised_stock_options'
p20
aS'from_messages'
p21
aS'other'
p22
aS'director_fees'
p23
aS'communicating_info'
p24
a.